(dp0
S'e0db.551c.f160'
p1
(lp2
S'172.17.3.108'
p3
aS'2015-02-10'
p4
aS'Vlan216'
p5
aS'null'
p6
asS'3417.ebb1.0bf4'
p7
(lp8
S'172.17.105.120'
p9
ag4
aS'Vlan215'
p10
ag6
asS'bc30.5ba7.8b64'
p11
(lp12
S'172.17.110.95'
p13
ag4
aS'Vlan225'
p14
aS'agcn1-wkeng89'
p15
asS'0024.e89a.6431'
p16
(lp17
S'172.17.101.252'
p18
ag4
aS'Vlan211'
p19
aS'agcn1-laptop37'
p20
asS'90b1.1c9d.394f'
p21
(lp22
S'172.17.103.212'
p23
ag4
aS'Vlan212'
p24
aS'agcn1-wkeng175'
p25
asS'3417.ebc2.bf7b'
p26
(lp27
S'172.17.103.187'
p28
ag4
aS'Vlan212'
p29
aS'agcn1-wkeng283'
p30
asS'000c.2976.a061'
p31
(lp32
S'172.17.101.44'
p33
ag4
aS'Vlan211'
p34
ag6
asS'000c.2942.867a'
p35
(lp36
S'172.17.104.27'
p37
ag4
aS'Vlan210'
p38
ag6
asS'3417.ebd1.292e'
p39
(lp40
S'172.17.104.76'
p41
ag4
aS'Vlan210'
p42
aS'agcn1-wkeng302'
p43
asS'346b.d389.4c18'
p44
(lp45
S'172.17.10.88'
p46
ag4
aS'Vlan220'
p47
ag6
asS'0c4d.e9ba.9239'
p48
(lp49
S'172.17.102.56'
p50
ag4
aS'Vlan214'
p51
ag6
asS'0060.6f6a.46e5'
p52
(lp53
S'172.17.5.11'
p54
ag4
aS'Vlan205'
p55
ag6
asS'b8ac.6f2e.8a06'
p56
(lp57
S'172.17.111.50'
p58
ag4
aS'Vlan226'
p59
ag6
asS'b8ca.3a78.36e7'
p60
(lp61
S'172.17.105.135'
p62
ag4
aS'Vlan215'
p63
aS'agcn1-wkeng201'
p64
asS'3417.ebc2.c4d4'
p65
(lp66
S'172.17.110.107'
p67
ag4
aS'Vlan225'
p68
aS'agcn1-wkeng285'
p69
asS'f8b1.569a.11e1'
p70
(lp71
S'172.17.110.126'
p72
ag4
aS'Vlan225'
p73
aS'agcn1-wkeng236'
p74
asS'b8ee.6504.0f57'
p75
(lp76
S'172.17.10.90'
p77
ag4
aS'Vlan220'
p78
aS'agcn1-laptop90'
p79
asS'3417.ebd1.28d5'
p80
(lp81
S'172.17.105.177'
p82
ag4
aS'Vlan215'
p83
aS'agcn1-wkeng303'
p84
asS'000c.29a1.f44d'
p85
(lp86
S'172.17.101.11'
p87
ag4
aS'Vlan211'
p88
ag6
asS'0448.9a7e.dd42'
p89
(lp90
S'172.17.103.216'
p91
ag4
aS'Vlan212'
p92
ag6
asS'c81f.66ed.aa9d'
p93
(lp94
S'172.17.3.112'
p95
ag4
aS'Vlan216'
p96
ag6
asS'000c.297f.898e'
p97
(lp98
S'172.17.101.13'
p99
ag4
aS'Vlan211'
p100
ag6
asS'b8ca.3aa9.b07b'
p101
(lp102
S'172.17.110.159'
p103
ag4
aS'Vlan225'
p104
aS'agcn1-wkeng219'
p105
asS'b8ca.3aa9.a9a3'
p106
(lp107
S'172.17.101.141'
p108
ag4
aS'Vlan211'
p109
aS'agcn1-wkeng222'
p110
asS'8056.f23a.f357'
p111
(lp112
S'172.17.101.151'
p113
ag4
aS'Vlan211'
p114
aS'agcn1-laptop64'
p115
asS'b8ca.3a90.1633'
p116
(lp117
S'172.17.104.107'
p118
ag4
aS'Vlan210'
p119
aS'agcn1-wkeng202'
p120
asS'000c.291a.2bf6'
p121
(lp122
S'172.17.101.28'
p123
ag4
aS'Vlan211'
p124
ag6
asS'90b1.1c95.3ad5'
p125
(lp126
S'172.17.103.214'
p127
ag4
aS'Vlan212'
p128
aS'agcn1-wkeng167'
p129
asS'3417.eba4.ad5b'
p130
(lp131
S'172.17.101.31'
p132
ag4
aS'Vlan211'
p133
ag6
asS'0026.b9de.bcca'
p134
(lp135
S'172.17.111.65'
p136
ag4
aS'Vlan226'
p137
aS'agcn1-laptop101'
p138
asS'000c.2996.d35a'
p139
(lp140
S'172.17.105.13'
p141
ag4
aS'Vlan215'
p142
ag6
asS'2037.066e.2141'
p143
(lp144
S'172.17.1.8'
p145
ag4
aS'Vlan218'
p146
ag6
asS'000c.29cf.bf16'
p147
(lp148
S'172.17.101.23'
p149
ag4
aS'Vlan211'
p150
ag6
asS'3417.eba1.dc88'
p151
(lp152
S'172.17.110.101'
p153
ag4
aS'Vlan225'
p154
aS'agcn1-wkeng260'
p155
asS'3417.ebc2.c340'
p156
(lp157
S'172.17.104.63'
p158
ag4
aS'Vlan210'
p159
aS'agcn1-wkeng286'
p160
asS'b8ca.3a90.168d'
p161
(lp162
S'172.17.101.158'
p163
ag4
aS'Vlan211'
p164
aS'agcn1-wkeng209'
p165
asS'000c.291d.0c76'
p166
(lp167
S'172.17.101.42'
p168
ag4
aS'Vlan211'
p169
ag6
asS'0060.6f4d.300f'
p170
(lp171
S'172.17.5.8'
p172
ag4
aS'Vlan205'
p173
ag6
asS'0023.14b1.e844'
p174
(lp175
S'172.17.104.105'
p176
ag4
aS'Vlan210'
p177
aS'agcn1-wkeng18'
p178
asS'd0c7.8930.8bc1'
p179
(lp180
S'172.17.1.14'
p181
ag4
aS'Vlan218'
p182
ag6
asS'000c.2995.4a12'
p183
(lp184
S'172.17.102.14'
p185
ag4
aS'Vlan214'
p186
ag6
asS'5c26.0a4b.ba8b'
p187
(lp188
S'172.17.111.62'
p189
ag4
aS'Vlan226'
p190
aS'agcn1-wkeng36'
p191
asS'1803.7331.0ce3'
p192
(lp193
S'172.17.105.158'
p194
ag4
aS'Vlan215'
p195
aS'agcn1-wkeng147'
p196
asS'00e0.4c68.823c'
p197
(lp198
S'172.17.105.63'
p199
ag4
aS'Vlan215'
p200
aS'agcn1-laptop95'
p201
asS'38bc.1a00.3917'
p202
(lp203
S'172.17.105.77'
p204
ag4
aS'Vlan215'
p205
ag6
asS'000c.29fb.9cfb'
p206
(lp207
S'172.17.3.3'
p208
ag4
aS'Vlan216'
p209
ag6
asS'd0df.9acf.7ffb'
p210
(lp211
S'172.17.101.154'
p212
ag4
aS'Vlan211'
p213
aS'agcn1-laptop40'
p214
asS'000c.2906.4dd0'
p215
(lp216
S'172.17.110.11'
p217
ag4
aS'Vlan225'
p218
ag6
asS'60d9.c78d.cf38'
p219
(lp220
S'172.17.103.220'
p221
ag4
aS'Vlan212'
p222
ag6
asS'3417.eba1.daf0'
p223
(lp224
S'172.17.110.104'
p225
ag4
aS'Vlan225'
p226
aS'agcn1-wkeng259'
p227
asS'b8ca.3a7f.83af'
p228
(lp229
S'172.17.105.85'
p230
ag4
aS'Vlan215'
p231
aS'agcn1-wkeng188'
p232
asS'5c26.0a68.ec3d'
p233
(lp234
S'172.17.53.52'
p235
ag4
aS'Vlan209'
p236
aS'AGCN1-LAPTOP46'
p237
asS'0021.9b67.fec7'
p238
(lp239
S'172.17.52.51'
p240
ag4
aS'Vlan207'
p241
aS'agcn1-wkadm03'
p242
asS'5c26.0a03.7bb2'
p243
(lp244
S'172.17.101.144'
p245
ag4
aS'Vlan211'
p246
aS'agcn1-laptop40'
p247
asS'b8ac.6f3e.a881'
p248
(lp249
S'172.17.105.126'
p250
ag4
aS'Vlan215'
p251
aS'agcn1-wkeng125'
p252
asS'000c.29cd.75d6'
p253
(lp254
S'172.17.101.49'
p255
ag4
aS'Vlan211'
p256
ag6
asS'000c.2965.c4d6'
p257
(lp258
S'172.17.101.15'
p259
ag4
aS'Vlan211'
p260
ag6
asS'000c.2990.e6f2'
p261
(lp262
S'172.17.103.10'
p263
ag4
aS'Vlan212'
p264
ag6
asS'000c.2965.558a'
p265
(lp266
S'172.17.105.15'
p267
ag4
aS'Vlan215'
p268
ag6
asS'000c.29b2.bf22'
p269
(lp270
S'172.17.101.18'
p271
ag4
aS'Vlan211'
p272
ag6
asS'000c.2994.3b88'
p273
(lp274
S'172.17.101.43'
p275
ag4
aS'Vlan211'
p276
ag6
asS'd4be.d902.58e3'
p277
(lp278
S'172.17.110.125'
p279
ag4
aS'Vlan225'
p280
aS'agcn1-laptop25'
p281
asS'0025.64ba.b314'
p282
(lp283
S'172.17.103.179'
p284
ag4
aS'Vlan212'
p285
aS'agcn1-wkeng117'
p286
asS'b8ca.3a8f.e01c'
p287
(lp288
S'172.17.110.123'
p289
ag4
aS'Vlan225'
p290
aS'agcn1-wkeng217'
p291
asS'000e.c6f5.ee6a'
p292
(lp293
S'172.17.103.160'
p294
ag4
aS'Vlan212'
p295
ag6
asS'000c.29cc.0394'
p296
(lp297
S'172.17.101.19'
p298
ag4
aS'Vlan211'
p299
ag6
asS'b8ca.3a90.1799'
p300
(lp301
S'172.17.108.250'
p302
ag4
aS'Vlan223'
p303
aS'agcn1-wkeng197'
p304
asS'cc3a.615e.da84'
p305
(lp306
S'172.17.110.111'
p307
ag4
aS'Vlan225'
p308
ag6
asS'0025.64bb.7e8c'
p309
(lp310
S'172.17.103.185'
p311
ag4
aS'Vlan212'
p312
aS'agcn1-wkeng101'
p313
asS'a0ce.c800.0eac'
p314
(lp315
S'172.17.103.106'
p316
ag4
aS'Vlan212'
p317
aS'agcn1-laptop81'
p318
asS'000c.29f7.f973'
p319
(lp320
S'172.17.110.12'
p321
ag4
aS'Vlan225'
p322
ag6
asS'b8ca.3a97.6142'
p323
(lp324
S'172.17.101.127'
p325
ag4
aS'Vlan211'
p326
aS'agcn1-wkeng211'
p327
asS'b8ca.3a97.6636'
p328
(lp329
S'172.17.102.55'
p330
ag4
aS'Vlan214'
p331
aS'agcn1-wkeng208'
p332
asS'0080.7793.f803'
p333
(lp334
S'172.17.51.20'
p335
ag4
aS'Vlan206'
p336
ag6
asS'b8ca.3aa9.d444'
p337
(lp338
S'172.17.110.100'
p339
ag4
aS'Vlan225'
p340
aS'agcn1-wkeng221'
p341
asS'90b1.1c95.1b38'
p342
(lp343
S'172.17.104.69'
p344
ag4
aS'Vlan210'
p345
aS'agcn1-wkeng169'
p346
asS'f8b1.56d0.1b65'
p347
(lp348
S'172.17.3.5'
p349
ag4
aS'Vlan216'
p350
aS'agcn1-wkeng246'
p351
asS'bc30.5ba7.5950'
p352
(lp353
S'172.17.104.64'
p354
ag4
aS'Vlan210'
p355
aS'agcn1-wkeng102'
p356
asS'38bc.1a9b.c57c'
p357
(lp358
S'172.17.103.222'
p359
ag4
aS'Vlan212'
p360
ag6
asS'bc30.5ba7.5953'
p361
(lp362
S'172.17.105.61'
p363
ag4
aS'Vlan215'
p364
aS'agcn1-wkeng105'
p365
asS'000c.297c.935b'
p366
(lp367
S'172.17.3.11'
p368
ag4
aS'Vlan216'
p369
ag6
asS'0025.64ab.1529'
p370
(lp371
S'172.17.3.80'
p372
ag4
aS'Vlan216'
p373
ag6
asS'0060.6f4d.0784'
p374
(lp375
S'172.17.5.4'
p376
ag4
aS'Vlan205'
p377
ag6
asS'0c27.2438.ce41'
p378
(lp379
S'172.17.1.15'
p380
ag4
aS'Vlan218'
p381
ag6
asS'd022.beee.3873'
p382
(lp383
S'172.17.103.221'
p384
ag4
aS'Vlan212'
p385
ag6
asS'000c.29cf.7e09'
p386
(lp387
S'172.17.101.4'
p388
ag4
aS'Vlan211'
p389
ag6
asS'0025.64bb.8adb'
p390
(lp391
S'172.17.104.108'
p392
ag4
aS'Vlan210'
p393
aS'agcn1-wkeng104'
p394
asS'000c.29f3.e609'
p395
(lp396
S'172.17.101.27'
p397
ag4
aS'Vlan211'
p398
ag6
asS'3417.ebc2.c200'
p399
(lp400
S'172.17.110.116'
p401
ag4
aS'Vlan225'
p402
aS'agcn1-wkeng292'
p403
asS'000c.2942.a25e'
p404
(lp405
S'172.17.101.7'
p406
ag4
aS'Vlan211'
p407
ag6
asS'90b1.1c91.51a9'
p408
(lp409
S'172.17.103.229'
p410
ag4
aS'Vlan212'
p411
aS'agcn1-wkeng165'
p412
asS'ecf4.bb94.e6e1'
p413
(lp414
S'172.17.52.2'
p415
ag4
aS'Vlan207'
p416
aS'agcn1-laptop102'
p417
asS'd4be.d957.ad4e'
p418
(lp419
S'172.17.10.114'
p420
ag4
aS'Vlan220'
p421
aS'agcn1-laptop52'
p422
asS'0004.f2a8.de0f'
p423
(lp424
S'172.17.4.3'
p425
ag4
aS'Vlan204'
p426
ag6
asS'0025.64bb.8c1e'
p427
(lp428
S'172.17.51.93'
p429
ag4
aS'Vlan206'
p430
aS'agcn1-wkeng115'
p431
asS'5c51.4fa9.2e5f'
p432
(lp433
S'172.17.10.106'
p434
ag4
aS'Vlan220'
p435
ag6
asS'0024.2c27.be8f'
p436
(lp437
S'172.17.101.107'
p438
ag4
aS'Vlan211'
p439
aS'agcn1-laptop37'
p440
asS'f4ce.4649.fa89'
p441
(lp442
S'172.17.53.30'
p443
ag4
aS'Vlan209'
p444
ag6
asS'f8b1.569f.38de'
p445
(lp446
S'172.17.101.85'
p447
ag4
aS'Vlan211'
p448
aS'agcn1-wkeng238'
p449
asS'b8ca.3a78.33aa'
p450
(lp451
S'172.17.105.169'
p452
ag4
aS'Vlan215'
p453
aS'agcn1-wkeng180'
p454
asS'000c.295f.9d92'
p455
(lp456
S'172.17.3.85'
p457
ag4
aS'Vlan216'
p458
ag6
asS'c064.c6fe.45f0'
p459
(lp460
S'172.17.10.84'
p461
ag4
aS'Vlan220'
p462
ag6
asS'000c.2930.d112'
p463
(lp464
S'172.17.101.6'
p465
ag4
aS'Vlan211'
p466
ag6
asS'0023.ae7c.383d'
p467
(lp468
S'172.17.3.79'
p469
ag4
aS'Vlan216'
p470
ag6
asS'5c26.0a77.fe30'
p471
(lp472
S'172.17.110.119'
p473
ag4
aS'Vlan225'
p474
aS'agcn1-laptop39'
p475
asS'f8b1.569a.2406'
p476
(lp477
S'172.17.102.54'
p478
ag4
aS'Vlan214'
p479
aS'agcn1-wkeng229'
p480
asS'0026.b9de.c166'
p481
(lp482
S'172.17.110.127'
p483
ag4
aS'Vlan225'
p484
aS'agcn1-laptop029'
p485
asS'0c30.21c9.4b53'
p486
(lp487
S'172.17.103.231'
p488
ag4
aS'Vlan212'
p489
ag6
asS'd4be.d902.5b4a'
p490
(lp491
S'172.17.105.59'
p492
ag4
aS'Vlan215'
p493
aS'agcn1-laptop99'
p494
asS'5c26.0a4b.badd'
p495
(lp496
S'172.17.103.178'
p497
ag4
aS'Vlan212'
p498
aS'agcn1-laptop35'
p499
asS'3417.ebb1.1033'
p500
(lp501
S'172.17.104.68'
p502
ag4
aS'Vlan210'
p503
aS'agcn1-wkeng274'
p504
asS'f01f.af4c.78bd'
p505
(lp506
S'172.17.101.119'
p507
ag4
aS'Vlan211'
p508
aS'agcn1-laptop63'
p509
asS'0004.f229.def1'
p510
(lp511
S'172.17.4.4'
p512
ag4
aS'Vlan204'
p513
ag6
asS'3417.ebb1.0cfb'
p514
(lp515
S'172.17.101.98'
p516
ag4
aS'Vlan211'
p517
aS'agcn1-wkeng267'
p518
asS'0024.e891.ec14'
p519
(lp520
S'172.17.3.10'
p521
ag4
aS'Vlan216'
p522
aS'agcn1-laptop10'
p523
asS'b8ac.6f3e.a853'
p524
(lp525
S'172.17.105.137'
p526
ag4
aS'Vlan215'
p527
aS'agcn1-wkeng24'
p528
asS'000c.2935.90fc'
p529
(lp530
S'172.17.104.28'
p531
ag4
aS'Vlan210'
p532
ag6
asS'f8b1.56d0.2320'
p533
(lp534
S'172.17.105.163'
p535
ag4
aS'Vlan215'
p536
aS'agcn1-wkeng247'
p537
asS'f8b1.569f.37f0'
p538
(lp539
S'172.17.105.122'
p540
ag4
aS'Vlan215'
p541
aS'agcn1-wkeng235'
p542
asS'7831.c1c5.15d0'
p543
(lp544
S'172.17.104.73'
p545
ag4
aS'Vlan210'
p546
ag6
asS'0c1d.afd3.292e'
p547
(lp548
S'172.17.103.201'
p549
ag4
aS'Vlan212'
p550
ag6
asS'0025.4bb3.9ee6'
p551
(lp552
S'172.17.101.112'
p553
ag4
aS'Vlan211'
p554
ag6
asS'0018.0a34.cc56'
p555
(lp556
S'172.17.6.24'
p557
ag4
aS'Vlan203'
p558
ag6
asS'001d.0910.39fc'
p559
(lp560
S'172.17.5.100'
p561
ag4
aS'Vlan205'
p562
aS'agcn1-ap01'
p563
asS'3417.ebd0.bfc7'
p564
(lp565
S'172.17.101.208'
p566
ag4
aS'Vlan211'
p567
aS'agcn1-wkeng305'
p568
asS'0022.1966.accf'
p569
(lp570
S'172.17.3.103'
p571
ag4
aS'Vlan216'
p572
ag6
asS'bc30.5ba2.b128'
p573
(lp574
S'172.17.101.129'
p575
ag4
aS'Vlan211'
p576
aS'agcn1-wkeng134'
p577
asS'000c.29b9.0bc7'
p578
(lp579
S'172.17.101.17'
p580
ag4
aS'Vlan211'
p581
ag6
asS'f8b1.56d9.111d'
p582
(lp583
S'172.17.105.81'
p584
ag4
aS'Vlan215'
p585
aS'agcn1-wkeng256'
p586
asS'000c.2964.149a'
p587
(lp588
S'172.17.111.191'
p589
ag4
aS'Vlan226'
p590
ag6
asS'0060.6f4d.3031'
p591
(lp592
S'172.17.5.2'
p593
ag4
aS'Vlan205'
p594
ag6
asS'000c.2915.85e1'
p595
(lp596
S'172.17.101.29'
p597
ag4
aS'Vlan211'
p598
ag6
asS'90b1.1c7a.0b76'
p599
(lp600
S'172.17.110.124'
p601
ag4
aS'Vlan225'
p602
aS'agcn1-wkeng155'
p603
asS'000c.29a4.8771'
p604
(lp605
S'172.17.3.107'
p606
ag4
aS'Vlan216'
p607
ag6
asS'3417.ebc2.c4e4'
p608
(lp609
S'172.17.103.225'
p610
ag4
aS'Vlan212'
p611
aS'agcn1-wkeng288'
p612
asS'0023.ae7c.36ac'
p613
(lp614
S'172.17.104.75'
p615
ag4
aS'Vlan210'
p616
aS'agcn1-wkeng80'
p617
asS'08d0.9f74.17c1'
p618
(lp619
S'172.17.1.6'
p620
ag4
aS'Vlan218'
p621
ag6
asS'd4be.d975.2022'
p622
(lp623
S'172.17.104.78'
p624
ag4
aS'Vlan210'
p625
aS'agcn1-laptop58'
p626
asS'5c26.0a24.612e'
p627
(lp628
S'172.17.105.54'
p629
ag4
aS'Vlan215'
p630
aS'agcn1-wkeng31'
p631
asS'3ca9.f404.7fe8'
p632
(lp633
S'172.17.104.53'
p634
ag4
aS'Vlan210'
p635
aS'agcn1-laptop56'
p636
asS'0025.64bb.894d'
p637
(lp638
S'172.17.105.175'
p639
ag4
aS'Vlan215'
p640
aS'agcn1-wkeng100'
p641
asS'd0c7.89ac.17c1'
p642
(lp643
S'172.17.1.13'
p644
ag4
aS'Vlan218'
p645
ag6
asS'0060.6f6a.506b'
p646
(lp647
S'172.17.5.10'
p648
ag4
aS'Vlan205'
p649
ag6
asS'bc30.5ba7.4177'
p650
(lp651
S'172.17.105.90'
p652
ag4
aS'Vlan215'
p653
aS'agcn1-wkeng138'
p654
asS'3417.ebc5.247b'
p655
(lp656
S'172.17.104.71'
p657
ag4
aS'Vlan210'
p658
aS'agcn1-wkeng289'
p659
asS'000c.29d5.53a2'
p660
(lp661
S'172.17.111.11'
p662
ag4
aS'Vlan226'
p663
ag6
asS'90b1.1c9d.40f6'
p664
(lp665
S'172.17.103.189'
p666
ag4
aS'Vlan212'
p667
aS'agcn1-wkeng173'
p668
asS'787e.61b5.dadf'
p669
(lp670
S'172.17.102.61'
p671
ag4
aS'Vlan214'
p672
ag6
asS'80cf.4163.459b'
p673
(lp674
S'172.17.110.106'
p675
ag4
aS'Vlan225'
p676
ag6
asS'b8ac.6f3e.900a'
p677
(lp678
S'172.17.52.3'
p679
ag4
aS'Vlan207'
p680
aS'agcn1-wkeng121'
p681
asS'b8ca.3a97.5f86'
p682
(lp683
S'172.17.101.110'
p684
ag4
aS'Vlan211'
p685
aS'agcn1-wkeng207'
p686
asS'3417.ebd0.bd99'
p687
(lp688
S'172.17.101.182'
p689
ag4
aS'Vlan211'
p690
aS'agcn1-wkeng306'
p691
asS'f8b1.56d9.108b'
p692
(lp693
S'172.17.104.57'
p694
ag4
aS'Vlan210'
p695
aS'agcn1-wkeng257'
p696
asS'f01f.af4c.8676'
p697
(lp698
S'172.17.101.146'
p699
ag4
aS'Vlan211'
p700
aS'agcn1-laptop64'
p701
asS'3417.ebb1.0972'
p702
(lp703
S'172.17.110.79'
p704
ag4
aS'Vlan225'
p705
aS'agcn1-wkeng269'
p706
asS'0025.64bb.8a34'
p707
(lp708
S'172.17.110.117'
p709
ag4
aS'Vlan225'
p710
aS'agcn1-wkeng116'
p711
asS'000c.29c8.a87d'
p712
(lp713
S'172.17.101.40'
p714
ag4
aS'Vlan211'
p715
ag6
asS'9cf3.8707.ab90'
p716
(lp717
S'172.17.104.70'
p718
ag4
aS'Vlan210'
p719
ag6
asS'b8ac.6f2e.7f23'
p720
(lp721
S'172.17.101.132'
p722
ag4
aS'Vlan211'
p723
aS'agcn1-wkeng21'
p724
asS'000c.291c.301a'
p725
(lp726
S'172.17.3.2'
p727
ag4
aS'Vlan216'
p728
aS'agcn1-ut01'
p729
asS'b8ca.3ac6.a427'
p730
(lp731
S'172.17.104.51'
p732
ag4
aS'Vlan210'
p733
aS'agcn1-laptop57'
p734
asS'3417.eba1.cf2f'
p735
(lp736
S'172.17.105.73'
p737
ag4
aS'Vlan215'
p738
aS'agcn1-wkeng261'
p739
asS'000c.2984.b7b1'
p740
(lp741
S'172.17.3.12'
p742
ag4
aS'Vlan216'
p743
ag6
asS'0021.d7f7.67c1'
p744
(lp745
S'172.17.1.4'
p746
ag4
aS'Vlan218'
p747
ag6
asS'f8b1.56d0.1c84'
p748
(lp749
S'172.17.104.98'
p750
ag4
aS'Vlan210'
p751
aS'agcn1-wkeng250'
p752
asS'001e.799a.12c1'
p753
(lp754
S'172.17.1.3'
p755
ag4
aS'Vlan218'
p756
ag6
asS'0060.6f4d.0311'
p757
(lp758
S'172.17.5.3'
p759
ag4
aS'Vlan205'
p760
ag6
asS'3417.ebd0.c19b'
p761
(lp762
S'172.17.101.159'
p763
ag4
aS'Vlan211'
p764
aS'agcn1-wkeng295'
p765
asS'4874.6e7e.d904'
p766
(lp767
S'172.17.103.210'
p768
ag4
aS'Vlan212'
p769
ag6
asS'b8ac.6f2e.8b32'
p770
(lp771
S'172.17.101.134'
p772
ag4
aS'Vlan211'
p773
aS'agcn1-wkeng113'
p774
asS'000c.29b1.eaaa'
p775
(lp776
S'172.17.111.12'
p777
ag4
aS'Vlan226'
p778
ag6
asS'b8ca.3ac6.a8c5'
p779
(lp780
S'172.17.101.120'
p781
ag4
aS'Vlan211'
p782
aS'agcn1-laptop53'
p783
asS'000c.290c.198b'
p784
(lp785
S'172.17.101.21'
p786
ag4
aS'Vlan211'
p787
ag6
asS'3417.ebd1.3237'
p788
(lp789
S'172.17.108.92'
p790
ag4
aS'Vlan223'
p791
aS'agcn1-wkeng300'
p792
asS'000c.29e0.06c9'
p793
(lp794
S'172.17.101.5'
p795
ag4
aS'Vlan211'
p796
ag6
asS'0024.e89a.6417'
p797
(lp798
S'172.17.51.77'
p799
ag4
aS'Vlan206'
p800
ag6
asS'3417.ebd0.be0c'
p801
(lp802
S'172.17.104.60'
p803
ag4
aS'Vlan210'
p804
aS'agcn1-wkeng307'
p805
asS'd4be.d913.31a0'
p806
(lp807
S'172.17.10.111'
p808
ag4
aS'Vlan220'
p809
ag6
asS'ac3c.0b8a.891b'
p810
(lp811
S'172.17.10.103'
p812
ag4
aS'Vlan220'
p813
ag6
asS'5c50.150f.3142'
p814
(lp815
S'172.17.1.10'
p816
ag4
aS'Vlan218'
p817
ag6
asS'90b1.1c7a.0c03'
p818
(lp819
S'172.17.105.58'
p820
ag4
aS'Vlan215'
p821
aS'agcn1-wkeng154'
p822
asS'3417.ebd1.232d'
p823
(lp824
S'172.17.104.62'
p825
ag4
aS'Vlan210'
p826
aS'agcn1-wkeng311'
p827
asS'3417.ebd0.be02'
p828
(lp829
S'172.17.102.78'
p830
ag4
aS'Vlan214'
p831
aS'agcn1-wkeng301'
p832
asS'b8ca.3aa9.ac46'
p833
(lp834
S'172.17.101.123'
p835
ag4
aS'Vlan211'
p836
aS'agcn1-wkeng218'
p837
asS'1803.7331.054e'
p838
(lp839
S'172.17.105.134'
p840
ag4
aS'Vlan215'
p841
aS'agcn1-wkeng145'
p842
asS'3417.eba1.da0b'
p843
(lp844
S'172.17.101.41'
p845
ag4
aS'Vlan211'
p846
ag6
asS'0025.64bb.8983'
p847
(lp848
S'172.17.111.58'
p849
ag4
aS'Vlan226'
p850
aS'agcn1-wkeng114'
p851
asS'1803.7331.3223'
p852
(lp853
S'172.17.53.53'
p854
ag4
aS'Vlan209'
p855
aS'agcn1-wkeng142'
p856
asS'b8ca.3aa9.ad3e'
p857
(lp858
S'172.17.110.96'
p859
ag4
aS'Vlan225'
p860
aS'agcn1-wkeng220'
p861
asS'f01f.af4c.81eb'
p862
(lp863
S'172.17.107.50'
p864
ag4
aS'Vlan222'
p865
aS'agcn1-laptop62'
p866
asS'b8ca.3a97.5fc2'
p867
(lp868
S'172.17.101.26'
p869
ag4
aS'Vlan211'
p870
ag6
asS'90b1.1c95.231a'
p871
(lp872
S'172.17.101.188'
p873
ag4
aS'Vlan211'
p874
aS'agcn1-wkeng168'
p875
asS'3417.ebd0.c003'
p876
(lp877
S'172.17.103.204'
p878
ag4
aS'Vlan212'
p879
aS'agcn1-wkeng296'
p880
asS'0025.64bb.8a0b'
p881
(lp882
S'172.17.101.139'
p883
ag4
aS'Vlan211'
p884
aS'agcn1-wkeng74'
p885
asS'000c.29b1.825e'
p886
(lp887
S'172.17.101.48'
p888
ag4
aS'Vlan211'
p889
ag6
asS'f8b1.569f.407d'
p890
(lp891
S'172.17.110.110'
p892
ag4
aS'Vlan225'
p893
aS'agcn1-wkeng226'
p894
asS'b8ca.3a90.f679'
p895
(lp896
S'172.17.3.64'
p897
ag4
aS'Vlan216'
p898
aS'agcn1-wkeng196'
p899
asS'28d2.444d.152a'
p900
(lp901
S'172.17.111.60'
p902
ag4
aS'Vlan226'
p903
aS'agcn1-laptop85'
p904
asS'40a8.f0b5.943f'
p905
(lp906
S'172.17.3.15'
p907
ag4
aS'Vlan216'
p908
ag6
asS'000c.2907.4239'
p909
(lp910
S'172.17.101.12'
p911
ag4
aS'Vlan211'
p912
ag6
asS'90b1.1c95.3641'
p913
(lp914
S'172.17.101.149'
p915
ag4
aS'Vlan211'
p916
aS'agcn1-wkeng170'
p917
asS'b8ca.3aa9.ab96'
p918
(lp919
S'172.17.101.148'
p920
ag4
aS'Vlan211'
p921
aS'agcn1-wkeng216'
p922
asS'b8ca.3a7f.9171'
p923
(lp924
S'172.17.110.102'
p925
ag4
aS'Vlan225'
p926
aS'agcn1-wkeng183'
p927
asS'986c.f565.3f79'
p928
(lp929
S'172.17.10.94'
p930
ag4
aS'Vlan220'
p931
ag6
asS'000c.299c.5e64'
p932
(lp933
S'172.17.101.36'
p934
ag4
aS'Vlan211'
p935
ag6
asS'0018.0a31.ba4e'
p936
(lp937
S'172.17.6.11'
p938
ag4
aS'Vlan203'
p939
ag6
asS'000c.29b2.3b42'
p940
(lp941
S'172.17.3.8'
p942
ag4
aS'Vlan216'
p943
ag6
asS'90b1.1c91.47b9'
p944
(lp945
S'172.17.103.173'
p946
ag4
aS'Vlan212'
p947
aS'agcn1-wkeng161'
p948
asS'3417.ebb1.0989'
p949
(lp950
S'172.17.105.184'
p951
ag4
aS'Vlan215'
p952
aS'agcn1-wkeng270'
p953
asS'0025.64bb.8c7c'
p954
(lp955
S'172.17.103.182'
p956
ag4
aS'Vlan212'
p957
aS'agcn1-wkeng78'
p958
asS'b8ac.6f3e.a831'
p959
(lp960
S'172.17.3.91'
p961
ag4
aS'Vlan216'
p962
ag6
asS'28d2.4447.738c'
p963
(lp964
S'172.17.110.98'
p965
ag4
aS'Vlan225'
p966
aS'agcn1-laptop80'
p967
asS'000c.2958.8c33'
p968
(lp969
S'172.17.101.22'
p970
ag4
aS'Vlan211'
p971
ag6
asS'5c26.0a4b.bc48'
p972
(lp973
S'172.17.103.213'
p974
ag4
aS'Vlan212'
p975
aS'agcn1-laptop14'
p976
asS'd4be.d9f7.00f1'
p977
(lp978
S'172.17.3.102'
p979
ag4
aS'Vlan216'
p980
ag6
asS'f8b1.56d0.1c45'
p981
(lp982
S'172.17.105.111'
p983
ag4
aS'Vlan215'
p984
aS'agcn1-wkeng248'
p985
asS'3417.ebd0.c1d7'
p986
(lp987
S'172.17.103.206'
p988
ag4
aS'Vlan212'
p989
aS'agcn1-wkeng299'
p990
asS'0c27.247b.2041'
p991
(lp992
S'172.17.1.11'
p993
ag4
aS'Vlan218'
p994
ag6
asS'1859.3679.7118'
p995
(lp996
S'172.17.10.97'
p997
ag4
aS'Vlan220'
p998
ag6
asS'b8ca.3a90.f7a1'
p999
(lp1000
S'172.17.105.57'
p1001
ag4
aS'Vlan215'
p1002
aS'agcn1-wkeng199'
p1003
asS'0023.7d8c.110f'
p1004
(lp1005
S'172.17.3.7'
p1006
ag4
aS'Vlan216'
p1007
ag6
asS'c8e0.eb6c.aea1'
p1008
(lp1009
S'172.17.10.86'
p1010
ag4
aS'Vlan220'
p1011
ag6
asS'000c.29c1.58e5'
p1012
(lp1013
S'172.17.3.21'
p1014
ag4
aS'Vlan216'
p1015
ag6
asS'000c.291a.e5b4'
p1016
(lp1017
S'172.17.101.47'
p1018
ag4
aS'Vlan211'
p1019
ag6
asS'20c9.d089.0f6d'
p1020
(lp1021
S'172.17.101.150'
p1022
ag4
aS'Vlan211'
p1023
ag6
asS'001c.f698.0bc2'
p1024
(lp1025
S'172.17.1.12'
p1026
ag4
aS'Vlan218'
p1027
ag6
asS'3417.ebc4.e27a'
p1028
(lp1029
S'172.17.105.172'
p1030
ag4
aS'Vlan215'
p1031
aS'agcn1-wkeng287'
p1032
asS'3417.ebb1.0c50'
p1033
(lp1034
S'172.17.108.51'
p1035
ag4
aS'Vlan223'
p1036
aS'agcn1-wkeng273'
p1037
asS'000c.2992.e254'
p1038
(lp1039
S'172.17.105.14'
p1040
ag4
aS'Vlan215'
p1041
ag6
asS'b8ca.3a7f.81a9'
p1042
(lp1043
S'172.17.101.137'
p1044
ag4
aS'Vlan211'
p1045
aS'agcn1-wkeng187'
p1046
asS'3417.ebb1.07a3'
p1047
(lp1048
S'172.17.101.136'
p1049
ag4
aS'Vlan211'
p1050
aS'agcn1-wkeng281'
p1051
asS'0025.64bb.8cf5'
p1052
(lp1053
S'172.17.101.2'
p1054
ag4
aS'Vlan211'
p1055
ag6
asS'60f8.1d41.0354'
p1056
(lp1057
S'172.17.101.155'
p1058
ag4
aS'Vlan211'
p1059
ag6
asS'90b1.1c79.fc31'
p1060
(lp1061
S'172.17.101.130'
p1062
ag4
aS'Vlan211'
p1063
aS'agcn1-wkeng158'
p1064
asS'0018.0a34.cc4e'
p1065
(lp1066
S'172.17.6.22'
p1067
ag4
aS'Vlan203'
p1068
ag6
asS'3417.ebd0.bc9d'
p1069
(lp1070
S'172.17.101.135'
p1071
ag4
aS'Vlan211'
p1072
aS'agcn1-wkeng309'
p1073
asS'0017.a497.c987'
p1074
(lp1075
S'172.17.53.31'
p1076
ag4
aS'Vlan209'
p1077
ag6
asS'6003.0899.8fd2'
p1078
(lp1079
S'172.17.10.96'
p1080
ag4
aS'Vlan220'
p1081
ag6
asS'1803.7331.31da'
p1082
(lp1083
S'172.17.102.64'
p1084
ag4
aS'Vlan214'
p1085
aS'agcn1-wkeng150'
p1086
asS'b8ca.3a97.e942'
p1087
(lp1088
S'172.17.105.82'
p1089
ag4
aS'Vlan215'
p1090
aS'agcn1-wkeng206'
p1091
asS'3417.ebc2.c521'
p1092
(lp1093
S'172.17.110.215'
p1094
ag4
aS'Vlan225'
p1095
aS'agcn1-wkeng290'
p1096
asS'5c26.0a4b.bc4f'
p1097
(lp1098
S'172.17.101.118'
p1099
ag4
aS'Vlan211'
p1100
ag6
asS'3417.ebd1.2909'
p1101
(lp1102
S'172.17.104.59'
p1103
ag4
aS'Vlan210'
p1104
aS'AGCN1-WKENG310'
p1105
asS'b8ca.3a84.3751'
p1106
(lp1107
S'172.17.101.124'
p1108
ag4
aS'Vlan211'
p1109
aS'agcn1-wkeng190'
p1110
asS'000c.290d.2da6'
p1111
(lp1112
S'172.17.105.16'
p1113
ag4
aS'Vlan215'
p1114
ag6
asS'b8ca.3a78.35af'
p1115
(lp1116
S'172.17.111.55'
p1117
ag4
aS'Vlan226'
p1118
aS'agcn1-wkeng181'
p1119
asS'f8b1.56d9.10ec'
p1120
(lp1121
S'172.17.101.88'
p1122
ag4
aS'Vlan211'
p1123
aS'agcn1-wkeng255'
p1124
asS'0004.f22c.7752'
p1125
(lp1126
S'172.17.4.6'
p1127
ag4
aS'Vlan204'
p1128
ag6
asS'0018.0a83.1620'
p1129
(lp1130
S'172.17.6.25'
p1131
ag4
aS'Vlan203'
p1132
ag6
asS'90b1.1c95.3ab1'
p1133
(lp1134
S'172.17.103.224'
p1135
ag4
aS'Vlan212'
p1136
aS'agcn1-wkeng171'
p1137
asS'b8ca.3aa9.d425'
p1138
(lp1139
S'172.17.110.97'
p1140
ag4
aS'Vlan225'
p1141
aS'agcn1-wkeng223'
p1142
asS'7c1d.d9f5.e527'
p1143
(lp1144
S'172.17.101.145'
p1145
ag4
aS'Vlan211'
p1146
ag6
asS'b8ca.3a97.e00d'
p1147
(lp1148
S'172.17.103.184'
p1149
ag4
aS'Vlan212'
p1150
aS'agcn1-wkeng205'
p1151
asS'8056.f23a.f5a6'
p1152
(lp1153
S'172.17.101.138'
p1154
ag4
aS'Vlan211'
p1155
aS'agcn1-laptop65'
p1156
asS'000c.29cd.30ed'
p1157
(lp1158
S'172.17.101.24'
p1159
ag4
aS'Vlan211'
p1160
ag6
asS'b8ca.3a97.6645'
p1161
(lp1162
S'172.17.111.54'
p1163
ag4
aS'Vlan226'
p1164
aS'agcn1-wkeng214'
p1165
asS'b8ca.3a97.5ff5'
p1166
(lp1167
S'172.17.103.183'
p1168
ag4
aS'Vlan212'
p1169
aS'agcn1-wkeng212'
p1170
asS'bc30.5ba7.d88c'
p1171
(lp1172
S'172.17.110.114'
p1173
ag4
aS'Vlan225'
p1174
aS'agcn1-wkeng139'
p1175
asS'acf7.f346.e463'
p1176
(lp1177
S'172.17.10.99'
p1178
ag4
aS'Vlan220'
p1179
ag6
asS'100b.a936.f79c'
p1180
(lp1181
S'172.17.105.76'
p1182
ag4
aS'Vlan215'
p1183
aS'agcn1-laptop45'
p1184
asS'3417.ebd1.22a8'
p1185
(lp1186
S'172.17.110.113'
p1187
ag4
aS'Vlan225'
p1188
aS'agcn1-wkeng312'
p1189
asS'b8ca.3a7f.7dc4'
p1190
(lp1191
S'172.17.105.185'
p1192
ag4
aS'Vlan215'
p1193
aS'agcn1-wkeng184'
p1194
asS'000c.29b8.4d17'
p1195
(lp1196
S'172.17.101.25'
p1197
ag4
aS'Vlan211'
p1198
ag6
asS'0018.0a34.d57c'
p1199
(lp1200
S'172.17.6.23'
p1201
ag4
aS'Vlan203'
p1202
ag6
asS'0004.f22c.761f'
p1203
(lp1204
S'172.17.4.5'
p1205
ag4
aS'Vlan204'
p1206
ag6
asS'8056.f23a.f5ab'
p1207
(lp1208
S'172.17.105.88'
p1209
ag4
aS'Vlan215'
p1210
aS'agcn1-laptop61'
p1211
asS'f8b1.569f.3fb3'
p1212
(lp1213
S'172.17.105.123'
p1214
ag4
aS'Vlan215'
p1215
aS'agcn1-wkeng240'
p1216
asS'b8ca.3a7f.8b23'
p1217
(lp1218
S'172.17.103.191'
p1219
ag4
aS'Vlan212'
p1220
aS'agcn1-wkeng185'
p1221
asS'8cae.4cec.1ecb'
p1222
(lp1223
S'172.17.53.85'
p1224
ag4
aS'Vlan209'
p1225
aS'agcn1-laptop87'
p1226
asS'3417.ebc5.2284'
p1227
(lp1228
S'172.17.105.167'
p1229
ag4
aS'Vlan215'
p1230
aS'agcn1-wkeng282'
p1231
asS'000c.29fc.7bed'
p1232
(lp1233
S'172.17.101.38'
p1234
ag4
aS'Vlan211'
p1235
ag6
asS'bc30.5ba7.d8d0'
p1236
(lp1237
S'172.17.7.51'
p1238
ag4
aS'Vlan201'
p1239
aS'agcn1-wkeng135'
p1240
asS'3417.ebb1.0667'
p1241
(lp1242
S'172.17.101.209'
p1243
ag4
aS'Vlan211'
p1244
aS'agcn1-wkeng280'
p1245
asS'f8b1.56d0.1a50'
p1246
(lp1247
S'172.17.101.133'
p1248
ag4
aS'Vlan211'
p1249
aS'agcn1-wkeng242'
p1250
asS'f8b1.569f.4021'
p1251
(lp1252
S'172.17.103.186'
p1253
ag4
aS'Vlan212'
p1254
aS'agcn1-wkeng241'
p1255
asS'f027.655a.9ddb'
p1256
(lp1257
S'172.17.103.100'
p1258
ag4
aS'Vlan212'
p1259
ag6
asS'685b.35aa.714a'
p1260
(lp1261
S'172.17.53.68'
p1262
ag4
aS'Vlan209'
p1263
ag6
asS'1803.7331.317c'
p1264
(lp1265
S'172.17.105.164'
p1266
ag4
aS'Vlan215'
p1267
aS'agcn1-wkeng149'
p1268
asS'0060.6f4d.0303'
p1269
(lp1270
S'172.17.5.6'
p1271
ag4
aS'Vlan205'
p1272
ag6
asS'000c.29ee.032e'
p1273
(lp1274
S'172.17.102.11'
p1275
ag4
aS'Vlan214'
p1276
ag6
asS'000c.296f.d8fa'
p1277
(lp1278
S'172.17.101.30'
p1279
ag4
aS'Vlan211'
p1280
ag6
asS'000c.29e0.e6f0'
p1281
(lp1282
S'172.17.101.10'
p1283
ag4
aS'Vlan211'
p1284
ag6
asS'90b1.1c91.5359'
p1285
(lp1286
S'172.17.110.83'
p1287
ag4
aS'Vlan225'
p1288
aS'agcn1-wkeng164'
p1289
asS'0023.14b5.4dc0'
p1290
(lp1291
S'172.17.103.235'
p1292
ag4
aS'Vlan212'
p1293
aS'agcn1-laptop23'
p1294
asS'3417.ebb1.07ff'
p1295
(lp1296
S'172.17.105.83'
p1297
ag4
aS'Vlan215'
p1298
aS'agcn1-wkeng272'
p1299
asS'3417.ebd0.b8da'
p1300
(lp1301
S'172.17.103.193'
p1302
ag4
aS'Vlan212'
p1303
aS'agcn1-wkeng298'
p1304
asS'001e.79cf.aa42'
p1305
(lp1306
S'172.17.1.2'
p1307
ag4
aS'Vlan218'
p1308
ag6
asS'b8ac.6f2e.88f7'
p1309
(lp1310
S'172.17.51.50'
p1311
ag4
aS'Vlan206'
p1312
aS'agcn1-wkeng108'
p1313
asS'1803.7331.3177'
p1314
(lp1315
S'172.17.103.200'
p1316
ag4
aS'Vlan212'
p1317
aS'agcn1-wkeng153'
p1318
asS'b8ac.6f3e.a4ba'
p1319
(lp1320
S'172.17.104.109'
p1321
ag4
aS'Vlan210'
p1322
aS'agcn1-wkeng123'
p1323
asS'b8ca.3a84.3d14'
p1324
(lp1325
S'172.17.104.65'
p1326
ag4
aS'Vlan210'
p1327
aS'agcn1-wkeng193'
p1328
asS'f01f.af4c.7868'
p1329
(lp1330
S'172.17.101.140'
p1331
ag4
aS'Vlan211'
p1332
aS'agcn1-laptop65'
p1333
asS'441e.a132.1dc6'
p1334
(lp1335
S'172.17.3.9'
p1336
ag4
aS'Vlan216'
p1337
ag6
asS'f01f.af4c.8597'
p1338
(lp1339
S'172.17.105.62'
p1340
ag4
aS'Vlan215'
p1341
aS'agcn1-laptop61'
p1342
asS'b8ca.3a97.5fe6'
p1343
(lp1344
S'172.17.105.130'
p1345
ag4
aS'Vlan215'
p1346
aS'agcn1-wkeng203'
p1347
asS'0060.6f4d.3011'
p1348
(lp1349
S'172.17.5.7'
p1350
ag4
aS'Vlan205'
p1351
ag6
asS'f4f1.5a62.26af'
p1352
(lp1353
S'172.17.103.196'
p1354
ag4
aS'Vlan212'
p1355
ag6
asS'f04d.a239.e281'
p1356
(lp1357
S'172.17.105.136'
p1358
ag4
aS'Vlan215'
p1359
aS'agcn1-wkeng128'
p1360
asS'90b1.1c91.4c0e'
p1361
(lp1362
S'172.17.105.145'
p1363
ag4
aS'Vlan215'
p1364
aS'agcn1-wkeng160'
p1365
asS'3417.eba1.d857'
p1366
(lp1367
S'172.17.101.176'
p1368
ag4
aS'Vlan211'
p1369
aS'agcn1-wkeng252'
p1370
asS'3417.ebb1.0e07'
p1371
(lp1372
S'172.17.110.121'
p1373
ag4
aS'Vlan225'
p1374
aS'agcn1-wkeng265'
p1375
asS'b40b.4404.0406'
p1376
(lp1377
S'172.17.10.83'
p1378
ag4
aS'Vlan220'
p1379
ag6
asS'b8ac.6f2e.80c8'
p1380
(lp1381
S'172.17.7.65'
p1382
ag4
aS'Vlan201'
p1383
aS'agcn1-wkeng112'
p1384
asS'0cee.e6b5.2dba'
p1385
(lp1386
S'172.17.103.170'
p1387
ag4
aS'Vlan212'
p1388
aS'agcn1-wkeng49'
p1389
asS'3417.ebc2.c514'
p1390
(lp1391
S'172.17.105.162'
p1392
ag4
aS'Vlan215'
p1393
aS'agcn1-wkeng291'
p1394
asS'd4be.d913.34e3'
p1395
(lp1396
S'172.17.102.51'
p1397
ag4
aS'Vlan214'
p1398
aS'agcn1-laptop48'
p1399
asS'd4be.d957.ad1d'
p1400
(lp1401
S'172.17.103.203'
p1402
ag4
aS'Vlan212'
p1403
aS'agcn1-laptop43'
p1404
asS'b8ca.3aa9.abd4'
p1405
(lp1406
S'172.17.103.215'
p1407
ag4
aS'Vlan212'
p1408
aS'agcn1-wkeng215'
p1409
asS'90b1.1c9d.6c58'
p1410
(lp1411
S'172.17.103.195'
p1412
ag4
aS'Vlan212'
p1413
aS'agcn1-wkeng174'
p1414
asS'90b1.1c9d.68a2'
p1415
(lp1416
S'172.17.103.105'
p1417
ag4
aS'Vlan212'
p1418
aS'agcn1-wkeng177'
p1419
asS'b8ca.3a7f.785a'
p1420
(lp1421
S'172.17.105.216'
p1422
ag4
aS'Vlan215'
p1423
aS'agcn1-wkeng191'
p1424
asS'3417.eba4.b4f8'
p1425
(lp1426
S'172.17.111.63'
p1427
ag4
aS'Vlan226'
p1428
aS'agcn1-wkeng262'
p1429
asS'3417.ebc2.c228'
p1430
(lp1431
S'172.17.104.67'
p1432
ag4
aS'Vlan210'
p1433
aS'agcn1-wkeng284'
p1434
asS'3417.eba4.ad35'
p1435
(lp1436
S'172.17.111.56'
p1437
ag4
aS'Vlan226'
p1438
ag6
asS'bc30.5ba7.d825'
p1439
(lp1440
S'172.17.101.122'
p1441
ag4
aS'Vlan211'
p1442
aS'agcn1-wkeng45'
p1443
asS'f8b1.56d0.20b7'
p1444
(lp1445
S'172.17.101.55'
p1446
ag4
aS'Vlan211'
p1447
ag6
asS'c42c.0325.4c53'
p1448
(lp1449
S'172.17.103.102'
p1450
ag4
aS'Vlan212'
p1451
ag6
asS'000c.29cb.17cc'
p1452
(lp1453
S'172.17.102.12'
p1454
ag4
aS'Vlan214'
p1455
ag6
asS'd850.e675.d116'
p1456
(lp1457
S'172.17.103.236'
p1458
ag4
aS'Vlan212'
p1459
ag6
asS'4843.7c5a.103d'
p1460
(lp1461
S'172.17.10.110'
p1462
ag4
aS'Vlan220'
p1463
ag6
asS'986c.f51f.55b6'
p1464
(lp1465
S'172.17.10.98'
p1466
ag4
aS'Vlan220'
p1467
ag6
asS'3417.ebb1.069f'
p1468
(lp1469
S'172.17.104.79'
p1470
ag4
aS'Vlan210'
p1471
aS'agcn1-wkeng268'
p1472
asS'b8ac.6f2e.85de'
p1473
(lp1474
S'172.17.102.67'
p1475
ag4
aS'Vlan214'
p1476
aS'agcn1-wkeng111'
p1477
asS'000c.2947.d5df'
p1478
(lp1479
S'172.17.101.14'
p1480
ag4
aS'Vlan211'
p1481
ag6
asS'3417.eba1.db34'
p1482
(lp1483
S'172.17.101.45'
p1484
ag4
aS'Vlan211'
p1485
ag6
asS'f8b1.5699.c2e1'
p1486
(lp1487
S'172.17.105.124'
p1488
ag4
aS'Vlan215'
p1489
aS'agcn1-wkeng239'
p1490
asS'0022.1966.aa11'
p1491
(lp1492
S'172.17.3.101'
p1493
ag4
aS'Vlan216'
p1494
ag6
asS'0023.551c.8477'
p1495
(lp1496
S'172.17.51.60'
p1497
ag4
aS'Vlan206'
p1498
aS'agcn1-laptop104'
p1499
asS'acf7.f3cb.491b'
p1500
(lp1501
S'172.17.10.89'
p1502
ag4
aS'Vlan220'
p1503
ag6
asS'000c.29a6.98bb'
p1504
(lp1505
S'172.17.101.37'
p1506
ag4
aS'Vlan211'
p1507
ag6
asS'b8ca.3a88.662c'
p1508
(lp1509
S'172.17.103.190'
p1510
ag4
aS'Vlan212'
p1511
aS'agcn1-wkeng194'
p1512
asS'6033.4b24.7bab'
p1513
(lp1514
S'172.17.101.77'
p1515
ag4
aS'Vlan211'
p1516
ag6
asS'3417.eba1.de4d'
p1517
(lp1518
S'172.17.103.208'
p1519
ag4
aS'Vlan212'
p1520
aS'agcn1-wkeng258'
p1521
asS'b8ca.3a90.0a52'
p1522
(lp1523
S'172.17.111.61'
p1524
ag4
aS'Vlan226'
p1525
aS'agcn1-wkeng195'
p1526
asS'0018.0a85.5088'
p1527
(lp1528
S'172.17.0.1'
p1529
ag4
aS'Vlan3'
p1530
ag6
asS'28b2.bd78.497a'
p1531
(lp1532
S'172.17.103.237'
p1533
ag4
aS'Vlan212'
p1534
aS'agcn1-laptop104'
p1535
asS'0023.ab73.39c1'
p1536
(lp1537
S'172.17.1.7'
p1538
ag4
aS'Vlan218'
p1539
ag6
asS'0014.fd13.43fa'
p1540
(lp1541
S'172.17.3.100'
p1542
ag4
aS'Vlan216'
p1543
ag6
asS'5c26.0a4b.bc50'
p1544
(lp1545
S'172.17.103.202'
p1546
ag4
aS'Vlan212'
p1547
aS'agcn1-laptop04'
p1548
asS'f8b1.5699.cd11'
p1549
(lp1550
S'172.17.105.160'
p1551
ag4
aS'Vlan215'
p1552
aS'agcn1-wkeng233'
p1553
asS'000c.29b5.9f1e'
p1554
(lp1555
S'172.17.3.111'
p1556
ag4
aS'Vlan216'
p1557
ag6
asS'b8ca.3aa9.b087'
p1558
(lp1559
S'172.17.3.4'
p1560
ag4
aS'Vlan216'
p1561
aS'agcn1-wkeng213'
p1562
asS'3417.eba4.b4ba'
p1563
(lp1564
S'172.17.105.94'
p1565
ag4
aS'Vlan215'
p1566
aS'agcn1-wkeng275'
p1567
asS'f8b1.56d0.1f20'
p1568
(lp1569
S'172.17.101.104'
p1570
ag4
aS'Vlan211'
p1571
aS'agcn1-wkeng243'
p1572
asS'b8ac.6f3e.a7d9'
p1573
(lp1574
S'172.17.105.127'
p1575
ag4
aS'Vlan215'
p1576
aS'agcn1-wkeng129'
p1577
asS'3417.ebc2.c3fa'
p1578
(lp1579
S'172.17.110.103'
p1580
ag4
aS'Vlan225'
p1581
aS'agcn1-wkeng293'
p1582
asS'685b.358d.475e'
p1583
(lp1584
S'172.17.101.153'
p1585
ag4
aS'Vlan211'
p1586
ag6
asS'b8ac.6f2e.8b61'
p1587
(lp1588
S'172.17.103.207'
p1589
ag4
aS'Vlan212'
p1590
aS'AGCN1-WKENG131'
p1591
asS'3417.ebb1.0875'
p1592
(lp1593
S'172.17.101.86'
p1594
ag4
aS'Vlan211'
p1595
ag6
asS'b8ca.3aa9.d3f9'
p1596
(lp1597
S'172.17.101.222'
p1598
ag4
aS'Vlan211'
p1599
aS'agcn1-wkeng224'
p1600
asS'90b1.1c91.4bf5'
p1601
(lp1602
S'172.17.104.72'
p1603
ag4
aS'Vlan210'
p1604
aS'agcn1-wkeng162'
p1605
asS'3417.ebd1.271f'
p1606
(lp1607
S'172.17.110.108'
p1608
ag4
aS'Vlan225'
p1609
aS'agcn1-wkeng308'
p1610
asS'b8ca.3a78.3679'
p1611
(lp1612
S'172.17.104.104'
p1613
ag4
aS'Vlan210'
p1614
aS'AGCN1-WKENG179'
p1615
asS'b8ac.6f2e.8b6b'
p1616
(lp1617
S'172.17.102.66'
p1618
ag4
aS'Vlan214'
p1619
aS'agcn1-wkeng110'
p1620
asS'3417.eba4.b4de'
p1621
(lp1622
S'172.17.103.209'
p1623
ag4
aS'Vlan212'
p1624
aS'agcn1-wkeng263'
p1625
asS'bc30.5ba7.d7b2'
p1626
(lp1627
S'172.17.103.197'
p1628
ag4
aS'Vlan212'
p1629
aS'agcn1-wkeng133'
p1630
asS'b8ca.3a7f.824b'
p1631
(lp1632
S'172.17.103.194'
p1633
ag4
aS'Vlan212'
p1634
aS'agcn1-wkeng186'
p1635
asS'b8ca.3a84.48fb'
p1636
(lp1637
S'172.17.103.76'
p1638
ag4
aS'Vlan212'
p1639
aS'agcn1-wkeng189'
p1640
asS'b8ca.3a97.6654'
p1641
(lp1642
S'172.17.101.143'
p1643
ag4
aS'Vlan211'
p1644
aS'agcn1-wkeng204'
p1645
asS'b8ac.6f3e.a38b'
p1646
(lp1647
S'172.17.101.126'
p1648
ag4
aS'Vlan211'
p1649
aS'agcn1-wkeng120'
p1650
asS'90b1.1c9d.48aa'
p1651
(lp1652
S'172.17.101.128'
p1653
ag4
aS'Vlan211'
p1654
aS'agcn1-wkeng176'
p1655
asS'60f8.1dd0.f7ee'
p1656
(lp1657
S'172.17.102.63'
p1658
ag4
aS'Vlan214'
p1659
ag6
asS'90b1.1c95.3d11'
p1660
(lp1661
S'172.17.111.57'
p1662
ag4
aS'Vlan226'
p1663
aS'agcn1-wkeng172'
p1664
asS'000c.2950.0141'
p1665
(lp1666
S'172.17.100.10'
p1667
ag4
aS'Vlan217'
p1668
ag6
asS'b8ee.6504.2ba8'
p1669
(lp1670
S'172.17.10.112'
p1671
ag4
aS'Vlan220'
p1672
aS'agcn1-laptop95'
p1673
asS'b8ac.6f3e.a86b'
p1674
(lp1675
S'172.17.105.209'
p1676
ag4
aS'Vlan215'
p1677
aS'agcn1-wkeng127'
p1678
asS'0026.b9de.c1bf'
p1679
(lp1680
S'172.17.105.138'
p1681
ag4
aS'Vlan215'
p1682
aS'agcn1-laptop30'
p1683
asS'90b1.1c91.5952'
p1684
(lp1685
S'172.17.101.78'
p1686
ag4
aS'Vlan211'
p1687
aS'agcn1-wkeng163'
p1688
asS'ec35.8668.b0c7'
p1689
(lp1690
S'172.17.10.85'
p1691
ag4
aS'Vlan220'
p1692
ag6
asS'7cfa.df93.47b9'
p1693
(lp1694
S'172.17.104.66'
p1695
ag4
aS'Vlan210'
p1696
ag6
asS'000c.29b2.e773'
p1697
(lp1698
S'172.17.101.35'
p1699
ag4
aS'Vlan211'
p1700
ag6
asS'b8ca.3a76.f489'
p1701
(lp1702
S'172.17.104.61'
p1703
ag4
aS'Vlan210'
p1704
aS'agcn1-wkeng178'
p1705
asS'f8b1.56d0.233f'
p1706
(lp1707
S'172.17.103.211'
p1708
ag4
aS'Vlan212'
p1709
aS'agcn1-wkeng251'
p1710
asS'0021.cc5e.cc22'
p1711
(lp1712
S'172.17.110.128'
p1713
ag4
aS'Vlan225'
p1714
aS'china-alei'
p1715
asS'1803.7331.0ca9'
p1716
(lp1717
S'172.17.111.10'
p1718
ag4
aS'Vlan226'
p1719
ag6
asS'b8ac.6f3e.99a2'
p1720
(lp1721
S'172.17.51.52'
p1722
ag4
aS'Vlan206'
p1723
aS'agcn1-wkeng122'
p1724
asS'f8b1.56d0.1c65'
p1725
(lp1726
S'172.17.7.52'
p1727
ag4
aS'Vlan201'
p1728
aS'agcn1-wkeng244'
p1729
asS'7c1d.d975.4cfc'
p1730
(lp1731
S'172.17.101.157'
p1732
ag4
aS'Vlan211'
p1733
ag6
asS'1803.7331.0c7c'
p1734
(lp1735
S'172.17.103.199'
p1736
ag4
aS'Vlan212'
p1737
aS'agcn1-wkeng151'
p1738
asS'000c.29a4.a916'
p1739
(lp1740
S'172.17.101.3'
p1741
ag4
aS'Vlan211'
p1742
ag6
asS'28d2.4471.c1ff'
p1743
(lp1744
S'172.17.103.232'
p1745
ag4
aS'Vlan212'
p1746
aS'agcn1-laptop91'
p1747
asS'b8ca.3a88.5cb8'
p1748
(lp1749
S'172.17.110.99'
p1750
ag4
aS'Vlan225'
p1751
aS'agcn1-wkeng200'
p1752
as.