(dp0
S'e0db.551c.f160'
p1
(dp2
S'IP'
p3
S'172.17.3.108'
p4
sS'product'
p5
S'Vlan216'
p6
sS'time'
p7
S'2015-02-04'
p8
ssS'3417.ebb1.0bf4'
p9
(dp10
g3
S'172.17.105.120'
p11
sg5
S'Vlan215'
p12
sg7
g8
ssS'bc30.5ba7.8b64'
p13
(dp14
g3
S'172.17.110.95'
p15
sg5
S'Vlan225'
p16
sg7
g8
ssS'0024.e89a.6431'
p17
(dp18
g3
S'172.17.101.252'
p19
sg5
S'Vlan211'
p20
sg7
g8
ssS'90b1.1c9d.394f'
p21
(dp22
g3
S'172.17.103.212'
p23
sg5
S'Vlan212'
p24
sg7
g8
ssS'3417.ebc2.bf7b'
p25
(dp26
g3
S'172.17.103.187'
p27
sg5
S'Vlan212'
p28
sg7
g8
ssS'0060.6f4d.300f'
p29
(dp30
g3
S'172.17.5.8'
p31
sg5
S'Vlan205'
p32
sg7
g8
ssS'000c.2942.867a'
p33
(dp34
g3
S'172.17.104.27'
p35
sg5
S'Vlan210'
p36
sg7
g8
ssS'3417.ebd1.292e'
p37
(dp38
g3
S'172.17.104.76'
p39
sg5
S'Vlan210'
p40
sg7
g8
ssS'346b.d389.4c18'
p41
(dp42
g3
S'172.17.10.88'
p43
sg5
S'Vlan220'
p44
sg7
g8
ssS'0c4d.e9ba.9239'
p45
(dp46
g3
S'172.17.102.56'
p47
sg5
S'Vlan214'
p48
sg7
g8
ssS'0060.6f6a.46e5'
p49
(dp50
g3
S'172.17.5.11'
p51
sg5
S'Vlan205'
p52
sg7
g8
ssS'b8ac.6f2e.8a06'
p53
(dp54
g3
S'172.17.111.50'
p55
sg5
S'Vlan226'
p56
sg7
g8
ssS'b8ca.3a78.36e7'
p57
(dp58
g3
S'172.17.105.135'
p59
sg5
S'Vlan215'
p60
sg7
g8
ssS'3417.ebc2.c4d4'
p61
(dp62
g3
S'172.17.110.107'
p63
sg5
S'Vlan225'
p64
sg7
g8
ssS'f8b1.569a.11e1'
p65
(dp66
g3
S'172.17.110.126'
p67
sg5
S'Vlan225'
p68
sg7
g8
ssS'7831.c1c5.15d0'
p69
(dp70
g3
S'172.17.104.73'
p71
sg5
S'Vlan210'
p72
sg7
g8
ssS'3417.ebd1.28d5'
p73
(dp74
g3
S'172.17.105.177'
p75
sg5
S'Vlan215'
p76
sg7
g8
ssS'000c.29a1.f44d'
p77
(dp78
g3
S'172.17.101.11'
p79
sg5
S'Vlan211'
p80
sg7
g8
ssS'0448.9a7e.dd42'
p81
(dp82
g3
S'172.17.103.216'
p83
sg5
S'Vlan212'
p84
sg7
g8
ssS'c81f.66ed.aa9d'
p85
(dp86
g3
S'172.17.3.112'
p87
sg5
S'Vlan216'
p88
sg7
g8
ssS'000c.297f.898e'
p89
(dp90
g3
S'172.17.101.13'
p91
sg5
S'Vlan211'
p92
sg7
g8
ssS'b8ca.3aa9.b07b'
p93
(dp94
g3
S'172.17.110.159'
p95
sg5
S'Vlan225'
p96
sg7
g8
ssS'b8ca.3aa9.a9a3'
p97
(dp98
g3
S'172.17.101.141'
p99
sg5
S'Vlan211'
p100
sg7
g8
ssS'8056.f23a.f357'
p101
(dp102
g3
S'172.17.101.151'
p103
sg5
S'Vlan211'
p104
sg7
g8
ssS'b8ca.3a90.1633'
p105
(dp106
g3
S'172.17.104.107'
p107
sg5
S'Vlan210'
p108
sg7
g8
ssS'90b1.1c95.3ad5'
p109
(dp110
g3
S'172.17.103.214'
p111
sg5
S'Vlan212'
p112
sg7
g8
ssS'3417.eba4.ad5b'
p113
(dp114
g3
S'172.17.101.31'
p115
sg5
S'Vlan211'
p116
sg7
g8
ssS'0026.b9de.bcca'
p117
(dp118
g3
S'172.17.111.65'
p119
sg5
S'Vlan226'
p120
sg7
g8
ssS'000c.2996.d35a'
p121
(dp122
g3
S'172.17.105.13'
p123
sg5
S'Vlan215'
p124
sg7
g8
ssS'000c.2907.4239'
p125
(dp126
g3
S'172.17.101.12'
p127
sg5
S'Vlan211'
p128
sg7
g8
ssS'000c.29cf.bf16'
p129
(dp130
g3
S'172.17.101.23'
p131
sg5
S'Vlan211'
p132
sg7
g8
ssS'3417.eba1.dc88'
p133
(dp134
g3
S'172.17.110.101'
p135
sg5
S'Vlan225'
p136
sg7
g8
ssS'3417.ebc2.c340'
p137
(dp138
g3
S'172.17.104.63'
p139
sg5
S'Vlan210'
p140
sg7
g8
ssS'000c.29a4.8771'
p141
(dp142
g3
S'172.17.3.107'
p143
sg5
S'Vlan216'
p144
sg7
g8
ssS'b8ca.3a90.168d'
p145
(dp146
g3
S'172.17.101.158'
p147
sg5
S'Vlan211'
p148
sg7
g8
ssS'000c.291d.0c76'
p149
(dp150
g3
S'172.17.101.42'
p151
sg5
S'Vlan211'
p152
sg7
g8
ssS'0023.14b1.e844'
p153
(dp154
g3
S'172.17.104.105'
p155
sg5
S'Vlan210'
p156
sg7
g8
ssS'000c.2995.4a12'
p157
(dp158
g3
S'172.17.102.14'
p159
sg5
S'Vlan214'
p160
sg7
g8
ssS'5c26.0a4b.ba8b'
p161
(dp162
g3
S'172.17.111.62'
p163
sg5
S'Vlan226'
p164
sg7
g8
ssS'1803.7331.0ce3'
p165
(dp166
g3
S'172.17.105.158'
p167
sg5
S'Vlan215'
p168
sg7
g8
ssS'00e0.4c68.823c'
p169
(dp170
g3
S'172.17.105.63'
p171
sg5
S'Vlan215'
p172
sg7
g8
ssS'38bc.1a00.3917'
p173
(dp174
g3
S'172.17.105.77'
p175
sg5
S'Vlan215'
p176
sg7
g8
ssS'000c.29fb.9cfb'
p177
(dp178
g3
S'172.17.3.3'
p179
sg5
S'Vlan216'
p180
sg7
g8
ssS'd0df.9acf.7ffb'
p181
(dp182
g3
S'172.17.101.154'
p183
sg5
S'Vlan211'
p184
sg7
g8
ssS'000c.2906.4dd0'
p185
(dp186
g3
S'172.17.110.11'
p187
sg5
S'Vlan225'
p188
sg7
g8
ssS'60d9.c78d.cf38'
p189
(dp190
g3
S'172.17.103.220'
p191
sg5
S'Vlan212'
p192
sg7
g8
ssS'3417.eba1.daf0'
p193
(dp194
g3
S'172.17.110.104'
p195
sg5
S'Vlan225'
p196
sg7
g8
ssS'b8ca.3a7f.83af'
p197
(dp198
g3
S'172.17.105.85'
p199
sg5
S'Vlan215'
p200
sg7
g8
ssS'5c26.0a68.ec3d'
p201
(dp202
g3
S'172.17.53.52'
p203
sg5
S'Vlan209'
p204
sg7
g8
ssS'787e.61b5.dadf'
p205
(dp206
g3
S'172.17.102.61'
p207
sg5
S'Vlan214'
p208
sg7
g8
ssS'5c26.0a03.7bb2'
p209
(dp210
g3
S'172.17.101.144'
p211
sg5
S'Vlan211'
p212
sg7
g8
ssS'b8ac.6f3e.a881'
p213
(dp214
g3
S'172.17.105.126'
p215
sg5
S'Vlan215'
p216
sg7
g8
ssS'000c.29cd.75d6'
p217
(dp218
g3
S'172.17.101.49'
p219
sg5
S'Vlan211'
p220
sg7
g8
ssS'000c.2965.c4d6'
p221
(dp222
g3
S'172.17.101.15'
p223
sg5
S'Vlan211'
p224
sg7
g8
ssS'000c.2976.a061'
p225
(dp226
g3
S'172.17.101.44'
p227
sg5
S'Vlan211'
p228
sg7
g8
ssS'000c.2990.e6f2'
p229
(dp230
g3
S'172.17.103.10'
p231
sg5
S'Vlan212'
p232
sg7
g8
ssS'000c.2965.558a'
p233
(dp234
g3
S'172.17.105.15'
p235
sg5
S'Vlan215'
p236
sg7
g8
ssS'000c.29b2.bf22'
p237
(dp238
g3
S'172.17.101.18'
p239
sg5
S'Vlan211'
p240
sg7
g8
ssS'000c.2994.3b88'
p241
(dp242
g3
S'172.17.101.43'
p243
sg5
S'Vlan211'
p244
sg7
g8
ssS'd4be.d902.58e3'
p245
(dp246
g3
S'172.17.110.125'
p247
sg5
S'Vlan225'
p248
sg7
g8
ssS'0025.64ba.b314'
p249
(dp250
g3
S'172.17.103.179'
p251
sg5
S'Vlan212'
p252
sg7
g8
ssS'b8ca.3a8f.e01c'
p253
(dp254
g3
S'172.17.110.123'
p255
sg5
S'Vlan225'
p256
sg7
g8
ssS'000e.c6f5.ee6a'
p257
(dp258
g3
S'172.17.103.160'
p259
sg5
S'Vlan212'
p260
sg7
g8
ssS'b8ca.3a90.1799'
p261
(dp262
g3
S'172.17.108.250'
p263
sg5
S'Vlan223'
p264
sg7
g8
ssS'cc3a.615e.da84'
p265
(dp266
g3
S'172.17.110.111'
p267
sg5
S'Vlan225'
p268
sg7
g8
ssS'0025.64bb.7e8c'
p269
(dp270
g3
S'172.17.103.185'
p271
sg5
S'Vlan212'
p272
sg7
g8
ssS'a0ce.c800.0eac'
p273
(dp274
g3
S'172.17.103.106'
p275
sg5
S'Vlan212'
p276
sg7
g8
ssS'000c.29f7.f973'
p277
(dp278
g3
S'172.17.110.12'
p279
sg5
S'Vlan225'
p280
sg7
g8
ssS'b8ca.3a97.6142'
p281
(dp282
g3
S'172.17.101.127'
p283
sg5
S'Vlan211'
p284
sg7
g8
ssS'b8ca.3a97.6636'
p285
(dp286
g3
S'172.17.102.55'
p287
sg5
S'Vlan214'
p288
sg7
g8
ssS'0080.7793.f803'
p289
(dp290
g3
S'172.17.51.20'
p291
sg5
S'Vlan206'
p292
sg7
g8
ssS'b8ca.3aa9.d444'
p293
(dp294
g3
S'172.17.110.100'
p295
sg5
S'Vlan225'
p296
sg7
g8
ssS'90b1.1c95.1b38'
p297
(dp298
g3
S'172.17.104.69'
p299
sg5
S'Vlan210'
p300
sg7
g8
ssS'3417.ebc4.e27a'
p301
(dp302
g3
S'172.17.105.172'
p303
sg5
S'Vlan215'
p304
sg7
g8
ssS'f8b1.56d0.1b65'
p305
(dp306
g3
S'172.17.3.5'
p307
sg5
S'Vlan216'
p308
sg7
g8
ssS'bc30.5ba7.5950'
p309
(dp310
g3
S'172.17.104.64'
p311
sg5
S'Vlan210'
p312
sg7
g8
ssS'38bc.1a9b.c57c'
p313
(dp314
g3
S'172.17.103.222'
p315
sg5
S'Vlan212'
p316
sg7
g8
ssS'bc30.5ba7.5953'
p317
(dp318
g3
S'172.17.105.61'
p319
sg5
S'Vlan215'
p320
sg7
g8
ssS'3417.ebb1.0e07'
p321
(dp322
g3
S'172.17.110.121'
p323
sg5
S'Vlan225'
p324
sg7
g8
ssS'000c.297c.935b'
p325
(dp326
g3
S'172.17.3.11'
p327
sg5
S'Vlan216'
p328
sg7
g8
ssS'0025.64ab.1529'
p329
(dp330
g3
S'172.17.3.80'
p331
sg5
S'Vlan216'
p332
sg7
g8
ssS'0060.6f4d.0784'
p333
(dp334
g3
S'172.17.5.4'
p335
sg5
S'Vlan205'
p336
sg7
g8
ssS'0c27.2438.ce41'
p337
(dp338
g3
S'172.17.1.15'
p339
sg5
S'Vlan218'
p340
sg7
g8
ssS'd022.beee.3873'
p341
(dp342
g3
S'172.17.103.221'
p343
sg5
S'Vlan212'
p344
sg7
g8
ssS'000c.29cf.7e09'
p345
(dp346
g3
S'172.17.101.4'
p347
sg5
S'Vlan211'
p348
sg7
g8
ssS'0025.64bb.8adb'
p349
(dp350
g3
S'172.17.104.108'
p351
sg5
S'Vlan210'
p352
sg7
g8
ssS'000c.29f3.e609'
p353
(dp354
g3
S'172.17.101.27'
p355
sg5
S'Vlan211'
p356
sg7
g8
ssS'3417.ebc2.c200'
p357
(dp358
g3
S'172.17.110.116'
p359
sg5
S'Vlan225'
p360
sg7
g8
ssS'000c.2942.a25e'
p361
(dp362
g3
S'172.17.101.7'
p363
sg5
S'Vlan211'
p364
sg7
g8
ssS'90b1.1c91.51a9'
p365
(dp366
g3
S'172.17.103.229'
p367
sg5
S'Vlan212'
p368
sg7
g8
ssS'ecf4.bb94.e6e1'
p369
(dp370
g3
S'172.17.52.2'
p371
sg5
S'Vlan207'
p372
sg7
g8
ssS'd4be.d957.ad4e'
p373
(dp374
g3
S'172.17.10.114'
p375
sg5
S'Vlan220'
p376
sg7
g8
ssS'0004.f2a8.de0f'
p377
(dp378
g3
S'172.17.4.3'
p379
sg5
S'Vlan204'
p380
sg7
g8
ssS'4843.7c5a.103d'
p381
(dp382
g3
S'172.17.10.110'
p383
sg5
S'Vlan220'
p384
sg7
g8
ssS'0025.64bb.8c1e'
p385
(dp386
g3
S'172.17.51.93'
p387
sg5
S'Vlan206'
p388
sg7
g8
ssS'5c51.4fa9.2e5f'
p389
(dp390
g3
S'172.17.10.106'
p391
sg5
S'Vlan220'
p392
sg7
g8
ssS'0024.2c27.be8f'
p393
(dp394
g3
S'172.17.101.107'
p395
sg5
S'Vlan211'
p396
sg7
g8
ssS'f4ce.4649.fa89'
p397
(dp398
g3
S'172.17.53.30'
p399
sg5
S'Vlan209'
p400
sg7
g8
ssS'b8ca.3a78.33aa'
p401
(dp402
g3
S'172.17.105.169'
p403
sg5
S'Vlan215'
p404
sg7
g8
ssS'000c.295f.9d92'
p405
(dp406
g3
S'172.17.3.85'
p407
sg5
S'Vlan216'
p408
sg7
g8
ssS'd0c7.8930.8bc1'
p409
(dp410
g3
S'172.17.1.14'
p411
sg5
S'Vlan218'
p412
sg7
g8
ssS'000c.2930.d112'
p413
(dp414
g3
S'172.17.101.6'
p415
sg5
S'Vlan211'
p416
sg7
g8
ssS'0023.ae7c.383d'
p417
(dp418
g3
S'172.17.3.79'
p419
sg5
S'Vlan216'
p420
sg7
g8
ssS'5c26.0a77.fe30'
p421
(dp422
g3
S'172.17.110.119'
p423
sg5
S'Vlan225'
p424
sg7
g8
ssS'f8b1.569a.2406'
p425
(dp426
g3
S'172.17.102.54'
p427
sg5
S'Vlan214'
p428
sg7
g8
ssS'b8ac.6f3e.a831'
p429
(dp430
g3
S'172.17.3.91'
p431
sg5
S'Vlan216'
p432
sg7
g8
ssS'0026.b9de.c166'
p433
(dp434
g3
S'172.17.110.127'
p435
sg5
S'Vlan225'
p436
sg7
g8
ssS'0c30.21c9.4b53'
p437
(dp438
g3
S'172.17.103.231'
p439
sg5
S'Vlan212'
p440
sg7
g8
ssS'd4be.d902.5b4a'
p441
(dp442
g3
S'172.17.105.59'
p443
sg5
S'Vlan215'
p444
sg7
g8
ssS'5c26.0a4b.badd'
p445
(dp446
g3
S'172.17.103.178'
p447
sg5
S'Vlan212'
p448
sg7
g8
ssS'3417.ebb1.1033'
p449
(dp450
g3
S'172.17.104.68'
p451
sg5
S'Vlan210'
p452
sg7
g8
ssS'f01f.af4c.78bd'
p453
(dp454
g3
S'172.17.101.119'
p455
sg5
S'Vlan211'
p456
sg7
g8
ssS'0004.f229.def1'
p457
(dp458
g3
S'172.17.4.4'
p459
sg5
S'Vlan204'
p460
sg7
g8
ssS'3417.ebb1.0cfb'
p461
(dp462
g3
S'172.17.101.98'
p463
sg5
S'Vlan211'
p464
sg7
g8
ssS'0024.e891.ec14'
p465
(dp466
g3
S'172.17.3.10'
p467
sg5
S'Vlan216'
p468
sg7
g8
ssS'b8ac.6f3e.a853'
p469
(dp470
g3
S'172.17.105.137'
p471
sg5
S'Vlan215'
p472
sg7
g8
ssS'b8ee.6504.0f57'
p473
(dp474
g3
S'172.17.10.90'
p475
sg5
S'Vlan220'
p476
sg7
g8
ssS'000c.2935.90fc'
p477
(dp478
g3
S'172.17.104.28'
p479
sg5
S'Vlan210'
p480
sg7
g8
ssS'f8b1.56d0.2320'
p481
(dp482
g3
S'172.17.105.163'
p483
sg5
S'Vlan215'
p484
sg7
g8
ssS'f8b1.569f.37f0'
p485
(dp486
g3
S'172.17.105.122'
p487
sg5
S'Vlan215'
p488
sg7
g8
ssS'f027.655a.9ddb'
p489
(dp490
g3
S'172.17.103.100'
p491
sg5
S'Vlan212'
p492
sg7
g8
ssS'0c1d.afd3.292e'
p493
(dp494
g3
S'172.17.103.201'
p495
sg5
S'Vlan212'
p496
sg7
g8
ssS'0025.4bb3.9ee6'
p497
(dp498
g3
S'172.17.101.112'
p499
sg5
S'Vlan211'
p500
sg7
g8
ssS'0018.0a34.cc56'
p501
(dp502
g3
S'172.17.6.24'
p503
sg5
S'Vlan203'
p504
sg7
g8
ssS'001d.0910.39fc'
p505
(dp506
g3
S'172.17.5.100'
p507
sg5
S'Vlan205'
p508
sg7
g8
ssS'3417.ebd0.bfc7'
p509
(dp510
g3
S'172.17.101.208'
p511
sg5
S'Vlan211'
p512
sg7
g8
ssS'0022.1966.accf'
p513
(dp514
g3
S'172.17.3.103'
p515
sg5
S'Vlan216'
p516
sg7
g8
ssS'bc30.5ba2.b128'
p517
(dp518
g3
S'172.17.101.129'
p519
sg5
S'Vlan211'
p520
sg7
g8
ssS'000c.29b9.0bc7'
p521
(dp522
g3
S'172.17.101.17'
p523
sg5
S'Vlan211'
p524
sg7
g8
ssS'f8b1.56d9.111d'
p525
(dp526
g3
S'172.17.105.81'
p527
sg5
S'Vlan215'
p528
sg7
g8
ssS'000c.2964.149a'
p529
(dp530
g3
S'172.17.111.191'
p531
sg5
S'Vlan226'
p532
sg7
g8
ssS'0060.6f4d.3031'
p533
(dp534
g3
S'172.17.5.2'
p535
sg5
S'Vlan205'
p536
sg7
g8
ssS'000c.2915.85e1'
p537
(dp538
g3
S'172.17.101.29'
p539
sg5
S'Vlan211'
p540
sg7
g8
ssS'90b1.1c7a.0b76'
p541
(dp542
g3
S'172.17.110.124'
p543
sg5
S'Vlan225'
p544
sg7
g8
ssS'3417.eba4.b4de'
p545
(dp546
g3
S'172.17.103.209'
p547
sg5
S'Vlan212'
p548
sg7
g8
ssS'3417.ebc2.c4e4'
p549
(dp550
g3
S'172.17.103.225'
p551
sg5
S'Vlan212'
p552
sg7
g8
ssS'0023.ae7c.36ac'
p553
(dp554
g3
S'172.17.104.75'
p555
sg5
S'Vlan210'
p556
sg7
g8
ssS'08d0.9f74.17c1'
p557
(dp558
g3
S'172.17.1.6'
p559
sg5
S'Vlan218'
p560
sg7
g8
ssS'0c27.247b.2041'
p561
(dp562
g3
S'172.17.1.11'
p563
sg5
S'Vlan218'
p564
sg7
g8
ssS'5c26.0a24.612e'
p565
(dp566
g3
S'172.17.105.54'
p567
sg5
S'Vlan215'
p568
sg7
g8
ssS'3ca9.f404.7fe8'
p569
(dp570
g3
S'172.17.104.53'
p571
sg5
S'Vlan210'
p572
sg7
g8
ssS'0025.64bb.894d'
p573
(dp574
g3
S'172.17.105.175'
p575
sg5
S'Vlan215'
p576
sg7
g8
ssS'd0c7.89ac.17c1'
p577
(dp578
g3
S'172.17.1.13'
p579
sg5
S'Vlan218'
p580
sg7
g8
ssS'0023.14b5.4dc0'
p581
(dp582
g3
S'172.17.103.235'
p583
sg5
S'Vlan212'
p584
sg7
g8
ssS'bc30.5ba7.4177'
p585
(dp586
g3
S'172.17.105.90'
p587
sg5
S'Vlan215'
p588
sg7
g8
ssS'3417.ebc5.247b'
p589
(dp590
g3
S'172.17.104.71'
p591
sg5
S'Vlan210'
p592
sg7
g8
ssS'000c.29d5.53a2'
p593
(dp594
g3
S'172.17.111.11'
p595
sg5
S'Vlan226'
p596
sg7
g8
ssS'90b1.1c9d.40f6'
p597
(dp598
g3
S'172.17.103.189'
p599
sg5
S'Vlan212'
p600
sg7
g8
ssS'0021.9b67.fec7'
p601
(dp602
g3
S'172.17.52.51'
p603
sg5
S'Vlan207'
p604
sg7
g8
ssS'80cf.4163.459b'
p605
(dp606
g3
S'172.17.110.106'
p607
sg5
S'Vlan225'
p608
sg7
g8
ssS'b8ac.6f3e.900a'
p609
(dp610
g3
S'172.17.52.3'
p611
sg5
S'Vlan207'
p612
sg7
g8
ssS'b8ca.3a97.5f86'
p613
(dp614
g3
S'172.17.101.110'
p615
sg5
S'Vlan211'
p616
sg7
g8
ssS'3417.ebd0.bd99'
p617
(dp618
g3
S'172.17.101.182'
p619
sg5
S'Vlan211'
p620
sg7
g8
ssS'f8b1.56d9.108b'
p621
(dp622
g3
S'172.17.104.57'
p623
sg5
S'Vlan210'
p624
sg7
g8
ssS'f01f.af4c.8676'
p625
(dp626
g3
S'172.17.101.146'
p627
sg5
S'Vlan211'
p628
sg7
g8
ssS'3417.ebb1.0972'
p629
(dp630
g3
S'172.17.110.79'
p631
sg5
S'Vlan225'
p632
sg7
g8
ssS'0025.64bb.8a34'
p633
(dp634
g3
S'172.17.110.117'
p635
sg5
S'Vlan225'
p636
sg7
g8
ssS'000c.29c8.a87d'
p637
(dp638
g3
S'172.17.101.40'
p639
sg5
S'Vlan211'
p640
sg7
g8
ssS'9cf3.8707.ab90'
p641
(dp642
g3
S'172.17.104.70'
p643
sg5
S'Vlan210'
p644
sg7
g8
ssS'b8ac.6f2e.7f23'
p645
(dp646
g3
S'172.17.101.132'
p647
sg5
S'Vlan211'
p648
sg7
g8
ssS'000c.291c.301a'
p649
(dp650
g3
S'172.17.3.2'
p651
sg5
S'Vlan216'
p652
sg7
g8
ssS'3417.eba1.cf2f'
p653
(dp654
g3
S'172.17.105.73'
p655
sg5
S'Vlan215'
p656
sg7
g8
ssS'000c.2984.b7b1'
p657
(dp658
g3
S'172.17.3.12'
p659
sg5
S'Vlan216'
p660
sg7
g8
ssS'0021.d7f7.67c1'
p661
(dp662
g3
S'172.17.1.4'
p663
sg5
S'Vlan218'
p664
sg7
g8
ssS'f8b1.56d0.1c84'
p665
(dp666
g3
S'172.17.104.98'
p667
sg5
S'Vlan210'
p668
sg7
g8
ssS'001e.799a.12c1'
p669
(dp670
g3
S'172.17.1.3'
p671
sg5
S'Vlan218'
p672
sg7
g8
ssS'6003.0899.8fd2'
p673
(dp674
g3
S'172.17.10.96'
p675
sg5
S'Vlan220'
p676
sg7
g8
ssS'c064.c6fe.45f0'
p677
(dp678
g3
S'172.17.10.84'
p679
sg5
S'Vlan220'
p680
sg7
g8
ssS'4874.6e7e.d904'
p681
(dp682
g3
S'172.17.103.210'
p683
sg5
S'Vlan212'
p684
sg7
g8
ssS'b8ac.6f2e.8b32'
p685
(dp686
g3
S'172.17.101.134'
p687
sg5
S'Vlan211'
p688
sg7
g8
ssS'000c.29cd.30ed'
p689
(dp690
g3
S'172.17.101.24'
p691
sg5
S'Vlan211'
p692
sg7
g8
ssS'bc30.5ba7.d88c'
p693
(dp694
g3
S'172.17.110.114'
p695
sg5
S'Vlan225'
p696
sg7
g8
ssS'000c.290c.198b'
p697
(dp698
g3
S'172.17.101.21'
p699
sg5
S'Vlan211'
p700
sg7
g8
ssS'3417.ebd1.3237'
p701
(dp702
g3
S'172.17.108.92'
p703
sg5
S'Vlan223'
p704
sg7
g8
ssS'000c.29e0.06c9'
p705
(dp706
g3
S'172.17.101.5'
p707
sg5
S'Vlan211'
p708
sg7
g8
ssS'0024.e89a.6417'
p709
(dp710
g3
S'172.17.51.77'
p711
sg5
S'Vlan206'
p712
sg7
g8
ssS'3417.ebd0.be0c'
p713
(dp714
g3
S'172.17.104.60'
p715
sg5
S'Vlan210'
p716
sg7
g8
ssS'd4be.d913.31a0'
p717
(dp718
g3
S'172.17.10.111'
p719
sg5
S'Vlan220'
p720
sg7
g8
ssS'ac3c.0b8a.891b'
p721
(dp722
g3
S'172.17.10.103'
p723
sg5
S'Vlan220'
p724
sg7
g8
ssS'5c50.150f.3142'
p725
(dp726
g3
S'172.17.1.10'
p727
sg5
S'Vlan218'
p728
sg7
g8
ssS'90b1.1c7a.0c03'
p729
(dp730
g3
S'172.17.105.58'
p731
sg5
S'Vlan215'
p732
sg7
g8
ssS'3417.ebd1.232d'
p733
(dp734
g3
S'172.17.104.62'
p735
sg5
S'Vlan210'
p736
sg7
g8
ssS'3417.ebd0.be02'
p737
(dp738
g3
S'172.17.102.78'
p739
sg5
S'Vlan214'
p740
sg7
g8
ssS'b8ca.3aa9.ac46'
p741
(dp742
g3
S'172.17.101.123'
p743
sg5
S'Vlan211'
p744
sg7
g8
ssS'1803.7331.054e'
p745
(dp746
g3
S'172.17.105.134'
p747
sg5
S'Vlan215'
p748
sg7
g8
ssS'3417.eba1.da0b'
p749
(dp750
g3
S'172.17.101.41'
p751
sg5
S'Vlan211'
p752
sg7
g8
ssS'0025.64bb.8983'
p753
(dp754
g3
S'172.17.111.58'
p755
sg5
S'Vlan226'
p756
sg7
g8
ssS'1803.7331.3223'
p757
(dp758
g3
S'172.17.53.53'
p759
sg5
S'Vlan209'
p760
sg7
g8
ssS'b8ca.3aa9.ad3e'
p761
(dp762
g3
S'172.17.110.96'
p763
sg5
S'Vlan225'
p764
sg7
g8
ssS'f01f.af4c.81eb'
p765
(dp766
g3
S'172.17.107.50'
p767
sg5
S'Vlan222'
p768
sg7
g8
ssS'b8ca.3a97.5fc2'
p769
(dp770
g3
S'172.17.101.26'
p771
sg5
S'Vlan211'
p772
sg7
g8
ssS'90b1.1c95.231a'
p773
(dp774
g3
S'172.17.101.188'
p775
sg5
S'Vlan211'
p776
sg7
g8
ssS'3417.ebd0.c003'
p777
(dp778
g3
S'172.17.103.204'
p779
sg5
S'Vlan212'
p780
sg7
g8
ssS'0025.64bb.8a0b'
p781
(dp782
g3
S'172.17.101.139'
p783
sg5
S'Vlan211'
p784
sg7
g8
ssS'000c.29b1.825e'
p785
(dp786
g3
S'172.17.101.48'
p787
sg5
S'Vlan211'
p788
sg7
g8
ssS'f8b1.569f.407d'
p789
(dp790
g3
S'172.17.110.110'
p791
sg5
S'Vlan225'
p792
sg7
g8
ssS'b8ca.3a90.f679'
p793
(dp794
g3
S'172.17.3.64'
p795
sg5
S'Vlan216'
p796
sg7
g8
ssS'28d2.444d.152a'
p797
(dp798
g3
S'172.17.111.60'
p799
sg5
S'Vlan226'
p800
sg7
g8
ssS'40a8.f0b5.943f'
p801
(dp802
g3
S'172.17.3.15'
p803
sg5
S'Vlan216'
p804
sg7
g8
ssS'2037.066e.2141'
p805
(dp806
g3
S'172.17.1.8'
p807
sg5
S'Vlan218'
p808
sg7
g8
ssS'90b1.1c95.3641'
p809
(dp810
g3
S'172.17.101.149'
p811
sg5
S'Vlan211'
p812
sg7
g8
ssS'b8ca.3aa9.ab96'
p813
(dp814
g3
S'172.17.101.148'
p815
sg5
S'Vlan211'
p816
sg7
g8
ssS'b8ca.3a7f.9171'
p817
(dp818
g3
S'172.17.110.102'
p819
sg5
S'Vlan225'
p820
sg7
g8
ssS'986c.f565.3f79'
p821
(dp822
g3
S'172.17.10.94'
p823
sg5
S'Vlan220'
p824
sg7
g8
ssS'000c.299c.5e64'
p825
(dp826
g3
S'172.17.101.36'
p827
sg5
S'Vlan211'
p828
sg7
g8
ssS'0018.0a31.ba4e'
p829
(dp830
g3
S'172.17.6.11'
p831
sg5
S'Vlan203'
p832
sg7
g8
ssS'000c.29b2.3b42'
p833
(dp834
g3
S'172.17.3.8'
p835
sg5
S'Vlan216'
p836
sg7
g8
ssS'90b1.1c91.47b9'
p837
(dp838
g3
S'172.17.103.173'
p839
sg5
S'Vlan212'
p840
sg7
g8
ssS'3417.ebb1.0989'
p841
(dp842
g3
S'172.17.105.184'
p843
sg5
S'Vlan215'
p844
sg7
g8
ssS'0025.64bb.8c7c'
p845
(dp846
g3
S'172.17.103.182'
p847
sg5
S'Vlan212'
p848
sg7
g8
ssS'3417.ebd0.c19b'
p849
(dp850
g3
S'172.17.101.159'
p851
sg5
S'Vlan211'
p852
sg7
g8
ssS'28d2.4447.738c'
p853
(dp854
g3
S'172.17.110.98'
p855
sg5
S'Vlan225'
p856
sg7
g8
ssS'000c.2958.8c33'
p857
(dp858
g3
S'172.17.101.22'
p859
sg5
S'Vlan211'
p860
sg7
g8
ssS'5c26.0a4b.bc48'
p861
(dp862
g3
S'172.17.103.213'
p863
sg5
S'Vlan212'
p864
sg7
g8
ssS'd4be.d9f7.00f1'
p865
(dp866
g3
S'172.17.3.102'
p867
sg5
S'Vlan216'
p868
sg7
g8
ssS'f8b1.56d0.1c45'
p869
(dp870
g3
S'172.17.105.111'
p871
sg5
S'Vlan215'
p872
sg7
g8
ssS'3417.ebd0.c1d7'
p873
(dp874
g3
S'172.17.103.206'
p875
sg5
S'Vlan212'
p876
sg7
g8
ssS'd4be.d975.2022'
p877
(dp878
g3
S'172.17.104.78'
p879
sg5
S'Vlan210'
p880
sg7
g8
ssS'1859.3679.7118'
p881
(dp882
g3
S'172.17.10.97'
p883
sg5
S'Vlan220'
p884
sg7
g8
ssS'b8ca.3a90.f7a1'
p885
(dp886
g3
S'172.17.105.57'
p887
sg5
S'Vlan215'
p888
sg7
g8
ssS'c8e0.eb6c.aea1'
p889
(dp890
g3
S'172.17.10.86'
p891
sg5
S'Vlan220'
p892
sg7
g8
ssS'000c.29c1.58e5'
p893
(dp894
g3
S'172.17.3.21'
p895
sg5
S'Vlan216'
p896
sg7
g8
ssS'000c.291a.e5b4'
p897
(dp898
g3
S'172.17.101.47'
p899
sg5
S'Vlan211'
p900
sg7
g8
ssS'20c9.d089.0f6d'
p901
(dp902
g3
S'172.17.101.150'
p903
sg5
S'Vlan211'
p904
sg7
g8
ssS'001c.f698.0bc2'
p905
(dp906
g3
S'172.17.1.12'
p907
sg5
S'Vlan218'
p908
sg7
g8
ssS'bc30.5ba7.d7b2'
p909
(dp910
g3
S'172.17.103.197'
p911
sg5
S'Vlan212'
p912
sg7
g8
ssS'3417.ebb1.0c50'
p913
(dp914
g3
S'172.17.108.51'
p915
sg5
S'Vlan223'
p916
sg7
g8
ssS'000c.2992.e254'
p917
(dp918
g3
S'172.17.105.14'
p919
sg5
S'Vlan215'
p920
sg7
g8
ssS'b8ca.3a7f.81a9'
p921
(dp922
g3
S'172.17.101.137'
p923
sg5
S'Vlan211'
p924
sg7
g8
ssS'3417.ebb1.07a3'
p925
(dp926
g3
S'172.17.101.136'
p927
sg5
S'Vlan211'
p928
sg7
g8
ssS'0025.64bb.8cf5'
p929
(dp930
g3
S'172.17.101.2'
p931
sg5
S'Vlan211'
p932
sg7
g8
ssS'60f8.1d41.0354'
p933
(dp934
g3
S'172.17.101.155'
p935
sg5
S'Vlan211'
p936
sg7
g8
ssS'90b1.1c79.fc31'
p937
(dp938
g3
S'172.17.101.130'
p939
sg5
S'Vlan211'
p940
sg7
g8
ssS'0018.0a34.cc4e'
p941
(dp942
g3
S'172.17.6.22'
p943
sg5
S'Vlan203'
p944
sg7
g8
ssS'3417.ebd0.bc9d'
p945
(dp946
g3
S'172.17.101.135'
p947
sg5
S'Vlan211'
p948
sg7
g8
ssS'0017.a497.c987'
p949
(dp950
g3
S'172.17.53.31'
p951
sg5
S'Vlan209'
p952
sg7
g8
ssS'0060.6f4d.0311'
p953
(dp954
g3
S'172.17.5.3'
p955
sg5
S'Vlan205'
p956
sg7
g8
ssS'1803.7331.31da'
p957
(dp958
g3
S'172.17.102.64'
p959
sg5
S'Vlan214'
p960
sg7
g8
ssS'b8ca.3a97.e942'
p961
(dp962
g3
S'172.17.105.82'
p963
sg5
S'Vlan215'
p964
sg7
g8
ssS'3417.ebc2.c521'
p965
(dp966
g3
S'172.17.110.215'
p967
sg5
S'Vlan225'
p968
sg7
g8
ssS'5c26.0a4b.bc4f'
p969
(dp970
g3
S'172.17.101.118'
p971
sg5
S'Vlan211'
p972
sg7
g8
ssS'3417.ebd1.2909'
p973
(dp974
g3
S'172.17.104.59'
p975
sg5
S'Vlan210'
p976
sg7
g8
ssS'b8ca.3a84.3751'
p977
(dp978
g3
S'172.17.101.124'
p979
sg5
S'Vlan211'
p980
sg7
g8
ssS'000c.290d.2da6'
p981
(dp982
g3
S'172.17.105.16'
p983
sg5
S'Vlan215'
p984
sg7
g8
ssS'b8ca.3a78.35af'
p985
(dp986
g3
S'172.17.111.55'
p987
sg5
S'Vlan226'
p988
sg7
g8
ssS'f8b1.56d9.10ec'
p989
(dp990
g3
S'172.17.101.88'
p991
sg5
S'Vlan211'
p992
sg7
g8
ssS'0004.f22c.7752'
p993
(dp994
g3
S'172.17.4.6'
p995
sg5
S'Vlan204'
p996
sg7
g8
ssS'0018.0a83.1620'
p997
(dp998
g3
S'172.17.6.25'
p999
sg5
S'Vlan203'
p1000
sg7
g8
ssS'90b1.1c95.3ab1'
p1001
(dp1002
g3
S'172.17.103.224'
p1003
sg5
S'Vlan212'
p1004
sg7
g8
ssS'b8ca.3aa9.d425'
p1005
(dp1006
g3
S'172.17.110.97'
p1007
sg5
S'Vlan225'
p1008
sg7
g8
ssS'7c1d.d9f5.e527'
p1009
(dp1010
g3
S'172.17.101.145'
p1011
sg5
S'Vlan211'
p1012
sg7
g8
ssS'b8ca.3a97.e00d'
p1013
(dp1014
g3
S'172.17.103.184'
p1015
sg5
S'Vlan212'
p1016
sg7
g8
ssS'8056.f23a.f5a6'
p1017
(dp1018
g3
S'172.17.101.138'
p1019
sg5
S'Vlan211'
p1020
sg7
g8
ssS'000c.29b1.eaaa'
p1021
(dp1022
g3
S'172.17.111.12'
p1023
sg5
S'Vlan226'
p1024
sg7
g8
ssS'b8ca.3a97.6645'
p1025
(dp1026
g3
S'172.17.111.54'
p1027
sg5
S'Vlan226'
p1028
sg7
g8
ssS'b8ca.3a97.5ff5'
p1029
(dp1030
g3
S'172.17.103.183'
p1031
sg5
S'Vlan212'
p1032
sg7
g8
ssS'b8ca.3ac6.a8c5'
p1033
(dp1034
g3
S'172.17.101.120'
p1035
sg5
S'Vlan211'
p1036
sg7
g8
ssS'acf7.f346.e463'
p1037
(dp1038
g3
S'172.17.10.99'
p1039
sg5
S'Vlan220'
p1040
sg7
g8
ssS'100b.a936.f79c'
p1041
(dp1042
g3
S'172.17.105.76'
p1043
sg5
S'Vlan215'
p1044
sg7
g8
ssS'3417.ebd1.22a8'
p1045
(dp1046
g3
S'172.17.110.113'
p1047
sg5
S'Vlan225'
p1048
sg7
g8
ssS'b8ca.3a7f.7dc4'
p1049
(dp1050
g3
S'172.17.105.185'
p1051
sg5
S'Vlan215'
p1052
sg7
g8
ssS'000c.29b8.4d17'
p1053
(dp1054
g3
S'172.17.101.25'
p1055
sg5
S'Vlan211'
p1056
sg7
g8
ssS'0018.0a34.d57c'
p1057
(dp1058
g3
S'172.17.6.23'
p1059
sg5
S'Vlan203'
p1060
sg7
g8
ssS'0004.f22c.761f'
p1061
(dp1062
g3
S'172.17.4.5'
p1063
sg5
S'Vlan204'
p1064
sg7
g8
ssS'8056.f23a.f5ab'
p1065
(dp1066
g3
S'172.17.105.88'
p1067
sg5
S'Vlan215'
p1068
sg7
g8
ssS'f8b1.569f.3fb3'
p1069
(dp1070
g3
S'172.17.105.123'
p1071
sg5
S'Vlan215'
p1072
sg7
g8
ssS'b8ca.3a7f.8b23'
p1073
(dp1074
g3
S'172.17.103.191'
p1075
sg5
S'Vlan212'
p1076
sg7
g8
ssS'8cae.4cec.1ecb'
p1077
(dp1078
g3
S'172.17.53.85'
p1079
sg5
S'Vlan209'
p1080
sg7
g8
ssS'3417.ebc5.2284'
p1081
(dp1082
g3
S'172.17.105.167'
p1083
sg5
S'Vlan215'
p1084
sg7
g8
ssS'000c.29fc.7bed'
p1085
(dp1086
g3
S'172.17.101.38'
p1087
sg5
S'Vlan211'
p1088
sg7
g8
ssS'bc30.5ba7.d8d0'
p1089
(dp1090
g3
S'172.17.7.51'
p1091
sg5
S'Vlan201'
p1092
sg7
g8
ssS'3417.ebb1.0667'
p1093
(dp1094
g3
S'172.17.101.209'
p1095
sg5
S'Vlan211'
p1096
sg7
g8
ssS'f8b1.56d0.1a50'
p1097
(dp1098
g3
S'172.17.101.133'
p1099
sg5
S'Vlan211'
p1100
sg7
g8
ssS'f8b1.569f.4021'
p1101
(dp1102
g3
S'172.17.103.186'
p1103
sg5
S'Vlan212'
p1104
sg7
g8
ssS'685b.35aa.714a'
p1105
(dp1106
g3
S'172.17.53.68'
p1107
sg5
S'Vlan209'
p1108
sg7
g8
ssS'1803.7331.317c'
p1109
(dp1110
g3
S'172.17.105.164'
p1111
sg5
S'Vlan215'
p1112
sg7
g8
ssS'0060.6f4d.0303'
p1113
(dp1114
g3
S'172.17.5.6'
p1115
sg5
S'Vlan205'
p1116
sg7
g8
ssS'000c.29ee.032e'
p1117
(dp1118
g3
S'172.17.102.11'
p1119
sg5
S'Vlan214'
p1120
sg7
g8
ssS'000c.296f.d8fa'
p1121
(dp1122
g3
S'172.17.101.30'
p1123
sg5
S'Vlan211'
p1124
sg7
g8
ssS'000c.29e0.e6f0'
p1125
(dp1126
g3
S'172.17.101.10'
p1127
sg5
S'Vlan211'
p1128
sg7
g8
ssS'90b1.1c91.5359'
p1129
(dp1130
g3
S'172.17.110.83'
p1131
sg5
S'Vlan225'
p1132
sg7
g8
ssS'0060.6f6a.506b'
p1133
(dp1134
g3
S'172.17.5.10'
p1135
sg5
S'Vlan205'
p1136
sg7
g8
ssS'3417.ebb1.07ff'
p1137
(dp1138
g3
S'172.17.105.83'
p1139
sg5
S'Vlan215'
p1140
sg7
g8
ssS'3417.ebd0.b8da'
p1141
(dp1142
g3
S'172.17.103.193'
p1143
sg5
S'Vlan212'
p1144
sg7
g8
ssS'001e.79cf.aa42'
p1145
(dp1146
g3
S'172.17.1.2'
p1147
sg5
S'Vlan218'
p1148
sg7
g8
ssS'b8ac.6f2e.88f7'
p1149
(dp1150
g3
S'172.17.51.50'
p1151
sg5
S'Vlan206'
p1152
sg7
g8
ssS'1803.7331.3177'
p1153
(dp1154
g3
S'172.17.103.200'
p1155
sg5
S'Vlan212'
p1156
sg7
g8
ssS'b8ac.6f3e.a4ba'
p1157
(dp1158
g3
S'172.17.104.109'
p1159
sg5
S'Vlan210'
p1160
sg7
g8
ssS'b8ca.3a84.3d14'
p1161
(dp1162
g3
S'172.17.104.65'
p1163
sg5
S'Vlan210'
p1164
sg7
g8
ssS'f01f.af4c.7868'
p1165
(dp1166
g3
S'172.17.101.140'
p1167
sg5
S'Vlan211'
p1168
sg7
g8
ssS'441e.a132.1dc6'
p1169
(dp1170
g3
S'172.17.3.9'
p1171
sg5
S'Vlan216'
p1172
sg7
g8
ssS'f01f.af4c.8597'
p1173
(dp1174
g3
S'172.17.105.62'
p1175
sg5
S'Vlan215'
p1176
sg7
g8
ssS'b8ca.3a97.5fe6'
p1177
(dp1178
g3
S'172.17.105.130'
p1179
sg5
S'Vlan215'
p1180
sg7
g8
ssS'0060.6f4d.3011'
p1181
(dp1182
g3
S'172.17.5.7'
p1183
sg5
S'Vlan205'
p1184
sg7
g8
ssS'f4f1.5a62.26af'
p1185
(dp1186
g3
S'172.17.103.196'
p1187
sg5
S'Vlan212'
p1188
sg7
g8
ssS'f04d.a239.e281'
p1189
(dp1190
g3
S'172.17.105.136'
p1191
sg5
S'Vlan215'
p1192
sg7
g8
ssS'90b1.1c91.4c0e'
p1193
(dp1194
g3
S'172.17.105.145'
p1195
sg5
S'Vlan215'
p1196
sg7
g8
ssS'3417.eba1.d857'
p1197
(dp1198
g3
S'172.17.101.176'
p1199
sg5
S'Vlan211'
p1200
sg7
g8
ssS'f8b1.569f.38de'
p1201
(dp1202
g3
S'172.17.101.85'
p1203
sg5
S'Vlan211'
p1204
sg7
g8
ssS'b40b.4404.0406'
p1205
(dp1206
g3
S'172.17.10.83'
p1207
sg5
S'Vlan220'
p1208
sg7
g8
ssS'b8ac.6f2e.80c8'
p1209
(dp1210
g3
S'172.17.7.65'
p1211
sg5
S'Vlan201'
p1212
sg7
g8
ssS'0cee.e6b5.2dba'
p1213
(dp1214
g3
S'172.17.103.170'
p1215
sg5
S'Vlan212'
p1216
sg7
g8
ssS'3417.ebc2.c514'
p1217
(dp1218
g3
S'172.17.105.162'
p1219
sg5
S'Vlan215'
p1220
sg7
g8
ssS'd4be.d913.34e3'
p1221
(dp1222
g3
S'172.17.102.51'
p1223
sg5
S'Vlan214'
p1224
sg7
g8
ssS'd4be.d957.ad1d'
p1225
(dp1226
g3
S'172.17.103.203'
p1227
sg5
S'Vlan212'
p1228
sg7
g8
ssS'b8ca.3aa9.abd4'
p1229
(dp1230
g3
S'172.17.103.215'
p1231
sg5
S'Vlan212'
p1232
sg7
g8
ssS'90b1.1c9d.6c58'
p1233
(dp1234
g3
S'172.17.103.195'
p1235
sg5
S'Vlan212'
p1236
sg7
g8
ssS'90b1.1c9d.68a2'
p1237
(dp1238
g3
S'172.17.103.105'
p1239
sg5
S'Vlan212'
p1240
sg7
g8
ssS'b8ca.3a7f.785a'
p1241
(dp1242
g3
S'172.17.105.216'
p1243
sg5
S'Vlan215'
p1244
sg7
g8
ssS'3417.eba4.b4f8'
p1245
(dp1246
g3
S'172.17.111.63'
p1247
sg5
S'Vlan226'
p1248
sg7
g8
ssS'3417.ebc2.c228'
p1249
(dp1250
g3
S'172.17.104.67'
p1251
sg5
S'Vlan210'
p1252
sg7
g8
ssS'3417.eba4.ad35'
p1253
(dp1254
g3
S'172.17.111.56'
p1255
sg5
S'Vlan226'
p1256
sg7
g8
ssS'bc30.5ba7.d825'
p1257
(dp1258
g3
S'172.17.101.122'
p1259
sg5
S'Vlan211'
p1260
sg7
g8
ssS'f8b1.5699.c2e1'
p1261
(dp1262
g3
S'172.17.105.124'
p1263
sg5
S'Vlan215'
p1264
sg7
g8
ssS'c42c.0325.4c53'
p1265
(dp1266
g3
S'172.17.103.102'
p1267
sg5
S'Vlan212'
p1268
sg7
g8
ssS'000c.29cb.17cc'
p1269
(dp1270
g3
S'172.17.102.12'
p1271
sg5
S'Vlan214'
p1272
sg7
g8
ssS'd850.e675.d116'
p1273
(dp1274
g3
S'172.17.103.236'
p1275
sg5
S'Vlan212'
p1276
sg7
g8
ssS'f8b1.56d0.1f20'
p1277
(dp1278
g3
S'172.17.101.104'
p1279
sg5
S'Vlan211'
p1280
sg7
g8
ssS'986c.f51f.55b6'
p1281
(dp1282
g3
S'172.17.10.98'
p1283
sg5
S'Vlan220'
p1284
sg7
g8
ssS'3417.ebb1.069f'
p1285
(dp1286
g3
S'172.17.104.79'
p1287
sg5
S'Vlan210'
p1288
sg7
g8
ssS'b8ac.6f2e.85de'
p1289
(dp1290
g3
S'172.17.102.67'
p1291
sg5
S'Vlan214'
p1292
sg7
g8
ssS'000c.2947.d5df'
p1293
(dp1294
g3
S'172.17.101.14'
p1295
sg5
S'Vlan211'
p1296
sg7
g8
ssS'3417.eba1.db34'
p1297
(dp1298
g3
S'172.17.101.45'
p1299
sg5
S'Vlan211'
p1300
sg7
g8
ssS'f8b1.56d0.20b7'
p1301
(dp1302
g3
S'172.17.101.55'
p1303
sg5
S'Vlan211'
p1304
sg7
g8
ssS'0022.1966.aa11'
p1305
(dp1306
g3
S'172.17.3.101'
p1307
sg5
S'Vlan216'
p1308
sg7
g8
ssS'0023.551c.8477'
p1309
(dp1310
g3
S'172.17.51.60'
p1311
sg5
S'Vlan206'
p1312
sg7
g8
ssS'acf7.f3cb.491b'
p1313
(dp1314
g3
S'172.17.10.89'
p1315
sg5
S'Vlan220'
p1316
sg7
g8
ssS'000c.29a6.98bb'
p1317
(dp1318
g3
S'172.17.101.37'
p1319
sg5
S'Vlan211'
p1320
sg7
g8
ssS'b8ca.3a88.662c'
p1321
(dp1322
g3
S'172.17.103.190'
p1323
sg5
S'Vlan212'
p1324
sg7
g8
ssS'6033.4b24.7bab'
p1325
(dp1326
g3
S'172.17.101.77'
p1327
sg5
S'Vlan211'
p1328
sg7
g8
ssS'3417.eba1.de4d'
p1329
(dp1330
g3
S'172.17.103.208'
p1331
sg5
S'Vlan212'
p1332
sg7
g8
ssS'b8ca.3a90.0a52'
p1333
(dp1334
g3
S'172.17.111.61'
p1335
sg5
S'Vlan226'
p1336
sg7
g8
ssS'0018.0a85.5088'
p1337
(dp1338
g3
S'172.17.0.1'
p1339
sg5
S'Vlan3'
p1340
sg7
g8
ssS'28b2.bd78.497a'
p1341
(dp1342
g3
S'172.17.103.237'
p1343
sg5
S'Vlan212'
p1344
sg7
g8
ssS'0023.ab73.39c1'
p1345
(dp1346
g3
S'172.17.1.7'
p1347
sg5
S'Vlan218'
p1348
sg7
g8
ssS'0014.fd13.43fa'
p1349
(dp1350
g3
S'172.17.3.100'
p1351
sg5
S'Vlan216'
p1352
sg7
g8
ssS'5c26.0a4b.bc50'
p1353
(dp1354
g3
S'172.17.103.202'
p1355
sg5
S'Vlan212'
p1356
sg7
g8
ssS'f8b1.5699.cd11'
p1357
(dp1358
g3
S'172.17.105.160'
p1359
sg5
S'Vlan215'
p1360
sg7
g8
ssS'000c.29b5.9f1e'
p1361
(dp1362
g3
S'172.17.3.111'
p1363
sg5
S'Vlan216'
p1364
sg7
g8
ssS'b8ca.3aa9.b087'
p1365
(dp1366
g3
S'172.17.3.4'
p1367
sg5
S'Vlan216'
p1368
sg7
g8
ssS'3417.eba4.b4ba'
p1369
(dp1370
g3
S'172.17.105.94'
p1371
sg5
S'Vlan215'
p1372
sg7
g8
ssS'b8ca.3ac6.a427'
p1373
(dp1374
g3
S'172.17.104.51'
p1375
sg5
S'Vlan210'
p1376
sg7
g8
ssS'b8ac.6f3e.a7d9'
p1377
(dp1378
g3
S'172.17.105.127'
p1379
sg5
S'Vlan215'
p1380
sg7
g8
ssS'3417.ebc2.c3fa'
p1381
(dp1382
g3
S'172.17.110.103'
p1383
sg5
S'Vlan225'
p1384
sg7
g8
ssS'685b.358d.475e'
p1385
(dp1386
g3
S'172.17.101.153'
p1387
sg5
S'Vlan211'
p1388
sg7
g8
ssS'b8ac.6f2e.8b61'
p1389
(dp1390
g3
S'172.17.103.207'
p1391
sg5
S'Vlan212'
p1392
sg7
g8
ssS'3417.ebb1.0875'
p1393
(dp1394
g3
S'172.17.101.86'
p1395
sg5
S'Vlan211'
p1396
sg7
g8
ssS'b8ca.3aa9.d3f9'
p1397
(dp1398
g3
S'172.17.101.222'
p1399
sg5
S'Vlan211'
p1400
sg7
g8
ssS'90b1.1c91.4bf5'
p1401
(dp1402
g3
S'172.17.104.72'
p1403
sg5
S'Vlan210'
p1404
sg7
g8
ssS'3417.ebd1.271f'
p1405
(dp1406
g3
S'172.17.110.108'
p1407
sg5
S'Vlan225'
p1408
sg7
g8
ssS'b8ca.3a88.5cb8'
p1409
(dp1410
g3
S'172.17.110.99'
p1411
sg5
S'Vlan225'
p1412
sg7
g8
ssS'b8ca.3a78.3679'
p1413
(dp1414
g3
S'172.17.104.104'
p1415
sg5
S'Vlan210'
p1416
sg7
g8
ssS'b8ac.6f2e.8b6b'
p1417
(dp1418
g3
S'172.17.102.66'
p1419
sg5
S'Vlan214'
p1420
sg7
g8
ssS'0023.7d8c.110f'
p1421
(dp1422
g3
S'172.17.3.7'
p1423
sg5
S'Vlan216'
p1424
sg7
g8
ssS'000c.291a.2bf6'
p1425
(dp1426
g3
S'172.17.101.28'
p1427
sg5
S'Vlan211'
p1428
sg7
g8
ssS'b8ca.3a7f.824b'
p1429
(dp1430
g3
S'172.17.103.194'
p1431
sg5
S'Vlan212'
p1432
sg7
g8
ssS'b8ca.3a84.48fb'
p1433
(dp1434
g3
S'172.17.103.76'
p1435
sg5
S'Vlan212'
p1436
sg7
g8
ssS'b8ca.3a97.6654'
p1437
(dp1438
g3
S'172.17.101.143'
p1439
sg5
S'Vlan211'
p1440
sg7
g8
ssS'b8ac.6f3e.a38b'
p1441
(dp1442
g3
S'172.17.101.126'
p1443
sg5
S'Vlan211'
p1444
sg7
g8
ssS'90b1.1c9d.48aa'
p1445
(dp1446
g3
S'172.17.101.128'
p1447
sg5
S'Vlan211'
p1448
sg7
g8
ssS'60f8.1dd0.f7ee'
p1449
(dp1450
g3
S'172.17.102.63'
p1451
sg5
S'Vlan214'
p1452
sg7
g8
ssS'90b1.1c95.3d11'
p1453
(dp1454
g3
S'172.17.111.57'
p1455
sg5
S'Vlan226'
p1456
sg7
g8
ssS'000c.2950.0141'
p1457
(dp1458
g3
S'172.17.100.10'
p1459
sg5
S'Vlan217'
p1460
sg7
g8
ssS'b8ee.6504.2ba8'
p1461
(dp1462
g3
S'172.17.10.112'
p1463
sg5
S'Vlan220'
p1464
sg7
g8
ssS'b8ac.6f3e.a86b'
p1465
(dp1466
g3
S'172.17.105.209'
p1467
sg5
S'Vlan215'
p1468
sg7
g8
ssS'0026.b9de.c1bf'
p1469
(dp1470
g3
S'172.17.105.138'
p1471
sg5
S'Vlan215'
p1472
sg7
g8
ssS'90b1.1c91.5952'
p1473
(dp1474
g3
S'172.17.101.78'
p1475
sg5
S'Vlan211'
p1476
sg7
g8
ssS'ec35.8668.b0c7'
p1477
(dp1478
g3
S'172.17.10.85'
p1479
sg5
S'Vlan220'
p1480
sg7
g8
ssS'7cfa.df93.47b9'
p1481
(dp1482
g3
S'172.17.104.66'
p1483
sg5
S'Vlan210'
p1484
sg7
g8
ssS'000c.29b2.e773'
p1485
(dp1486
g3
S'172.17.101.35'
p1487
sg5
S'Vlan211'
p1488
sg7
g8
ssS'b8ca.3a76.f489'
p1489
(dp1490
g3
S'172.17.104.61'
p1491
sg5
S'Vlan210'
p1492
sg7
g8
ssS'f8b1.56d0.233f'
p1493
(dp1494
g3
S'172.17.103.211'
p1495
sg5
S'Vlan212'
p1496
sg7
g8
ssS'0021.cc5e.cc22'
p1497
(dp1498
g3
S'172.17.110.128'
p1499
sg5
S'Vlan225'
p1500
sg7
g8
ssS'1803.7331.0ca9'
p1501
(dp1502
g3
S'172.17.111.10'
p1503
sg5
S'Vlan226'
p1504
sg7
g8
ssS'b8ac.6f3e.99a2'
p1505
(dp1506
g3
S'172.17.51.52'
p1507
sg5
S'Vlan206'
p1508
sg7
g8
ssS'f8b1.56d0.1c65'
p1509
(dp1510
g3
S'172.17.7.52'
p1511
sg5
S'Vlan201'
p1512
sg7
g8
ssS'7c1d.d975.4cfc'
p1513
(dp1514
g3
S'172.17.101.157'
p1515
sg5
S'Vlan211'
p1516
sg7
g8
ssS'1803.7331.0c7c'
p1517
(dp1518
g3
S'172.17.103.199'
p1519
sg5
S'Vlan212'
p1520
sg7
g8
ssS'000c.29a4.a916'
p1521
(dp1522
g3
S'172.17.101.3'
p1523
sg5
S'Vlan211'
p1524
sg7
g8
ssS'28d2.4471.c1ff'
p1525
(dp1526
g3
S'172.17.103.232'
p1527
sg5
S'Vlan212'
p1528
sg7
g8
ssS'000c.29cc.0394'
p1529
(dp1530
g3
S'172.17.101.19'
p1531
sg5
S'Vlan211'
p1532
sg7
g8
ss.