(dp0
S'e0db.551c.f160'
p1
(dp2
S'IP'
p3
S'172.17.3.108'
p4
sS'product'
p5
S'Vlan216'
p6
ssS'3417.ebb1.0bf4'
p7
(dp8
g3
S'172.17.105.120'
p9
sg5
S'Vlan215'
p10
ssS'bc30.5ba7.8b64'
p11
(dp12
g3
S'172.17.110.95'
p13
sg5
S'Vlan225'
p14
sS'IT_tag'
p15
S'agcn1-wkeng89'
p16
ssS'0024.e89a.6431'
p17
(dp18
g3
S'172.17.101.252'
p19
sg5
S'Vlan211'
p20
sg15
S'agcn1-laptop37'
p21
ssS'100b.a937.20b8'
p22
(dp23
S'IP'
p24
S'172.17.104.74'
p25
sS'product'
p26
S'Vlan210'
p27
sg15
S'agcn1-wkeng264'
p28
ssS'90b1.1c9d.394f'
p29
(dp30
g3
S'172.17.103.212'
p31
sg5
S'Vlan212'
p32
sg15
S'agcn1-wkeng175'
p33
ssS'3417.ebc2.bf7b'
p34
(dp35
g3
S'172.17.103.187'
p36
sg5
S'Vlan212'
p37
sg15
S'agcn1-wkeng283'
p38
ssS'000c.2976.a061'
p39
(dp40
S'IP'
p41
S'172.17.101.44'
p42
sS'product'
p43
S'Vlan211'
p44
sS'time'
p45
S'2015-02-05'
p46
ssS'000c.2942.867a'
p47
(dp48
g3
S'172.17.104.27'
p49
sg5
S'Vlan210'
p50
ssS'3417.ebd1.292e'
p51
(dp52
g3
S'172.17.104.76'
p53
sg5
S'Vlan210'
p54
sg15
S'agcn1-wkeng302'
p55
ssS'346b.d389.4c18'
p56
(dp57
g41
S'172.17.10.88'
p58
sg43
S'Vlan220'
p59
sg45
g46
ssS'0c4d.e9ba.9239'
p60
(dp61
g3
S'172.17.102.56'
p62
sg5
S'Vlan214'
p63
ssS'0060.6f6a.46e5'
p64
(dp65
g3
S'172.17.5.11'
p66
sg5
S'Vlan205'
p67
ssS'b8ac.6f2e.8a06'
p68
(dp69
g3
S'172.17.111.50'
p70
sg5
S'Vlan226'
p71
ssS'b8ca.3a78.36e7'
p72
(dp73
g3
S'172.17.105.135'
p74
sg5
S'Vlan215'
p75
sg15
S'agcn1-wkeng201'
p76
ssS'3417.ebc2.c4d4'
p77
(dp78
g3
S'172.17.110.107'
p79
sg5
S'Vlan225'
p80
sg15
S'agcn1-wkeng285'
p81
ssS'f8b1.569a.11e1'
p82
(dp83
g3
S'172.17.110.126'
p84
sg5
S'Vlan225'
p85
sg15
S'agcn1-wkeng236'
p86
ssS'b8ee.6504.0f57'
p87
(dp88
g24
S'172.17.10.90'
p89
sg26
S'Vlan220'
p90
sg15
S'agcn1-laptop90'
p91
ssS'3417.ebd1.28d5'
p92
(dp93
g3
S'172.17.105.177'
p94
sg5
S'Vlan215'
p95
sg15
S'agcn1-wkeng303'
p96
ssS'000c.29a1.f44d'
p97
(dp98
g3
S'172.17.101.11'
p99
sg5
S'Vlan211'
p100
ssS'0448.9a7e.dd42'
p101
(dp102
g3
S'172.17.103.216'
p103
sg5
S'Vlan212'
p104
ssS'c81f.66ed.aa9d'
p105
(dp106
g3
S'172.17.3.112'
p107
sg5
S'Vlan216'
p108
ssS'000c.297f.898e'
p109
(dp110
g3
S'172.17.101.13'
p111
sg5
S'Vlan211'
p112
ssS'b8ca.3aa9.b07b'
p113
(dp114
g3
S'172.17.110.159'
p115
sg5
S'Vlan225'
p116
sg15
S'agcn1-wkeng219'
p117
ssS'000c.2984.b7b1'
p118
(dp119
g3
S'172.17.3.12'
p120
sg5
S'Vlan216'
p121
ssS'd4be.d977.d5a3'
p122
(dp123
g24
S'172.17.103.218'
p124
sg26
S'Vlan212'
p125
sg15
S'agcn1-latop59'
p126
ssS'b8ca.3aa9.a9a3'
p127
(dp128
g3
S'172.17.101.141'
p129
sg5
S'Vlan211'
p130
sg15
S'agcn1-wkeng222'
p131
ssS'8056.f23a.f357'
p132
(dp133
g3
S'172.17.101.151'
p134
sg5
S'Vlan211'
p135
sg15
S'agcn1-laptop64'
p136
ssS'b8ca.3a90.1633'
p137
(dp138
g3
S'172.17.104.107'
p139
sg5
S'Vlan210'
p140
sg15
S'agcn1-wkeng202'
p141
ssS'90b1.1c95.3ad5'
p142
(dp143
g3
S'172.17.103.214'
p144
sg5
S'Vlan212'
p145
sg15
S'agcn1-wkeng167'
p146
ssS'3417.eba4.ad5b'
p147
(dp148
g3
S'172.17.101.31'
p149
sg5
S'Vlan211'
p150
ssS'0026.b9de.bcca'
p151
(dp152
g3
S'172.17.111.65'
p153
sg5
S'Vlan226'
p154
sg15
S'agcn1-laptop101'
p155
ssS'000c.2996.d35a'
p156
(dp157
g3
S'172.17.105.13'
p158
sg5
S'Vlan215'
p159
ssS'2037.066e.2141'
p160
(dp161
g3
S'172.17.1.8'
p162
sg5
S'Vlan218'
p163
ssS'000c.29cf.bf16'
p164
(dp165
g3
S'172.17.101.23'
p166
sg5
S'Vlan211'
p167
ssS'3417.eba1.dc88'
p168
(dp169
g3
S'172.17.110.101'
p170
sg5
S'Vlan225'
p171
sg15
S'agcn1-wkeng260'
p172
ssS'3417.ebc2.c340'
p173
(dp174
g24
S'172.17.104.63'
p175
sg26
S'Vlan210'
p176
sg15
S'agcn1-wkeng286'
p177
ssS'b809.8a8e.0704'
p178
(dp179
g24
S'172.17.10.93'
p180
sg26
S'Vlan220'
p181
ssS'b8ca.3a90.168d'
p182
(dp183
g3
S'172.17.101.158'
p184
sg5
S'Vlan211'
p185
sg15
S'agcn1-wkeng209'
p186
ssS'000c.291d.0c76'
p187
(dp188
g41
S'172.17.101.42'
p189
sg43
S'Vlan211'
p190
sg45
g46
ssS'0060.6f4d.300f'
p191
(dp192
g3
S'172.17.5.8'
p193
sg5
S'Vlan205'
p194
ssS'0023.14b1.e844'
p195
(dp196
g3
S'172.17.104.105'
p197
sg5
S'Vlan210'
p198
sg15
S'agcn1-wkeng18'
p199
ssS'd0c7.8930.8bc1'
p200
(dp201
g3
S'172.17.1.14'
p202
sg5
S'Vlan218'
p203
ssS'000c.2995.4a12'
p204
(dp205
g3
S'172.17.102.14'
p206
sg5
S'Vlan214'
p207
ssS'5c26.0a4b.ba8b'
p208
(dp209
g24
S'172.17.111.62'
p210
sg26
S'Vlan226'
p211
sg15
S'agcn1-wkeng36'
p212
ssS'1803.7331.0ce3'
p213
(dp214
g3
S'172.17.105.158'
p215
sg5
S'Vlan215'
p216
sg15
S'agcn1-wkeng147'
p217
ssS'00e0.4c68.823c'
p218
(dp219
g24
S'172.17.105.63'
p220
sg26
S'Vlan215'
p221
sg15
S'agcn1-laptop95'
p222
ssS'38bc.1a00.3917'
p223
(dp224
g3
S'172.17.105.77'
p225
sg5
S'Vlan215'
p226
ssS'000c.29fb.9cfb'
p227
(dp228
g3
S'172.17.3.3'
p229
sg5
S'Vlan216'
p230
ssS'd0df.9acf.7ffb'
p231
(dp232
g3
S'172.17.101.154'
p233
sg5
S'Vlan211'
p234
sg15
S'agcn1-laptop40'
p235
ssS'000c.2906.4dd0'
p236
(dp237
g3
S'172.17.110.11'
p238
sg5
S'Vlan225'
p239
ssS'60d9.c78d.cf38'
p240
(dp241
g3
S'172.17.103.220'
p242
sg5
S'Vlan212'
p243
ssS'3417.eba1.daf0'
p244
(dp245
g3
S'172.17.110.104'
p246
sg5
S'Vlan225'
p247
sg15
S'agcn1-wkeng259'
p248
ssS'b8ca.3a7f.83af'
p249
(dp250
g3
S'172.17.105.85'
p251
sg5
S'Vlan215'
p252
sg15
S'agcn1-wkeng188'
p253
ssS'5c26.0a68.ec3d'
p254
(dp255
g3
S'172.17.53.52'
p256
sg5
S'Vlan209'
p257
sg15
S'AGCN1-LAPTOP46'
p258
ssS'0021.9b67.fec7'
p259
(dp260
g3
S'172.17.52.51'
p261
sg5
S'Vlan207'
p262
sg15
S'agcn1-wkadm03'
p263
ssS'5c26.0a03.7bb2'
p264
(dp265
g3
S'172.17.101.144'
p266
sg5
S'Vlan211'
p267
sg15
S'agcn1-laptop40'
p268
ssS'b8ac.6f3e.a881'
p269
(dp270
g3
S'172.17.105.126'
p271
sg5
S'Vlan215'
p272
sg15
S'agcn1-wkeng125'
p273
ssS'000c.29cd.75d6'
p274
(dp275
g24
S'172.17.101.49'
p276
sg26
S'Vlan211'
p277
ssS'000c.2965.c4d6'
p278
(dp279
g3
S'172.17.101.15'
p280
sg5
S'Vlan211'
p281
ssS'000c.2990.e6f2'
p282
(dp283
g3
S'172.17.103.10'
p284
sg5
S'Vlan212'
p285
ssS'000c.2965.558a'
p286
(dp287
g3
S'172.17.105.15'
p288
sg5
S'Vlan215'
p289
ssS'000c.29b2.bf22'
p290
(dp291
g3
S'172.17.101.18'
p292
sg5
S'Vlan211'
p293
ssS'000c.2994.3b88'
p294
(dp295
g41
S'172.17.101.43'
p296
sg43
S'Vlan211'
p297
sg45
g46
ssS'd4be.d902.58e3'
p298
(dp299
g3
S'172.17.110.125'
p300
sg5
S'Vlan225'
p301
sg15
S'agcn1-laptop25'
p302
ssS'0025.64ba.b314'
p303
(dp304
g3
S'172.17.103.179'
p305
sg5
S'Vlan212'
p306
sg15
S'agcn1-wkeng117'
p307
ssS'b8ca.3a8f.e01c'
p308
(dp309
g3
S'172.17.110.123'
p310
sg5
S'Vlan225'
p311
sg15
S'agcn1-wkeng217'
p312
ssS'ec35.8668.b0c7'
p313
(dp314
g3
S'172.17.10.85'
p315
sg5
S'Vlan220'
p316
ssS'000c.29cc.0394'
p317
(dp318
g3
S'172.17.101.19'
p319
sg5
S'Vlan211'
p320
ssS'b8ca.3a90.1799'
p321
(dp322
g3
S'172.17.108.250'
p323
sg5
S'Vlan223'
p324
sg15
S'agcn1-wkeng197'
p325
ssS'cc3a.615e.da84'
p326
(dp327
g3
S'172.17.110.111'
p328
sg5
S'Vlan225'
p329
ssS'0025.64bb.7e8c'
p330
(dp331
g3
S'172.17.103.185'
p332
sg5
S'Vlan212'
p333
sg15
S'agcn1-wkeng101'
p334
ssS'a0ce.c800.0eac'
p335
(dp336
g3
S'172.17.103.106'
p337
sg5
S'Vlan212'
p338
sg15
S'agcn1-laptop81'
p339
ssS'000c.29f7.f973'
p340
(dp341
g3
S'172.17.110.12'
p342
sg5
S'Vlan225'
p343
ssS'b8ca.3a97.6142'
p344
(dp345
g3
S'172.17.101.127'
p346
sg5
S'Vlan211'
p347
sg15
S'agcn1-wkeng211'
p348
ssS'b8ca.3a97.6636'
p349
(dp350
g24
S'172.17.102.55'
p351
sg26
S'Vlan214'
p352
sg15
S'agcn1-wkeng208'
p353
ssS'0080.7793.f803'
p354
(dp355
g3
S'172.17.51.20'
p356
sg5
S'Vlan206'
p357
ssS'b8ca.3aa9.d444'
p358
(dp359
g3
S'172.17.110.100'
p360
sg5
S'Vlan225'
p361
sg15
S'agcn1-wkeng221'
p362
ssS'90b1.1c95.1b38'
p363
(dp364
g3
S'172.17.104.69'
p365
sg5
S'Vlan210'
p366
sg15
S'agcn1-wkeng169'
p367
ssS'f8b1.56d0.1b65'
p368
(dp369
g3
S'172.17.3.5'
p370
sg5
S'Vlan216'
p371
sg15
S'agcn1-wkeng246'
p372
ssS'bc30.5ba7.5950'
p373
(dp374
g3
S'172.17.104.64'
p375
sg5
S'Vlan210'
p376
sg15
S'agcn1-wkeng102'
p377
ssS'38bc.1a9b.c57c'
p378
(dp379
g3
S'172.17.103.222'
p380
sg5
S'Vlan212'
p381
ssS'bc30.5ba7.5953'
p382
(dp383
g24
S'172.17.105.61'
p384
sg26
S'Vlan215'
p385
sg15
S'agcn1-wkeng105'
p386
ssS'000c.297c.935b'
p387
(dp388
g3
S'172.17.3.11'
p389
sg5
S'Vlan216'
p390
ssS'0025.64ab.1529'
p391
(dp392
g41
S'172.17.3.80'
p393
sg43
S'Vlan216'
p394
sg45
g46
ssS'0060.6f4d.0784'
p395
(dp396
g3
S'172.17.5.4'
p397
sg5
S'Vlan205'
p398
ssS'0c27.2438.ce41'
p399
(dp400
g3
S'172.17.1.15'
p401
sg5
S'Vlan218'
p402
ssS'd022.beee.3873'
p403
(dp404
g3
S'172.17.103.221'
p405
sg5
S'Vlan212'
p406
ssS'000c.29cf.7e09'
p407
(dp408
g3
S'172.17.101.4'
p409
sg5
S'Vlan211'
p410
ssS'0025.64bb.8adb'
p411
(dp412
g3
S'172.17.104.108'
p413
sg5
S'Vlan210'
p414
sg15
S'agcn1-wkeng104'
p415
ssS'000c.29f3.e609'
p416
(dp417
g3
S'172.17.101.27'
p418
sg5
S'Vlan211'
p419
ssS'3417.ebc2.c200'
p420
(dp421
g3
S'172.17.110.116'
p422
sg5
S'Vlan225'
p423
sg15
S'agcn1-wkeng292'
p424
ssS'000c.2942.a25e'
p425
(dp426
g3
S'172.17.101.7'
p427
sg5
S'Vlan211'
p428
ssS'90b1.1c91.51a9'
p429
(dp430
g3
S'172.17.103.229'
p431
sg5
S'Vlan212'
p432
sg15
S'agcn1-wkeng165'
p433
ssS'ecf4.bb94.e6e1'
p434
(dp435
g3
S'172.17.52.2'
p436
sg5
S'Vlan207'
p437
sg15
S'agcn1-laptop102'
p438
ssS'd4be.d957.ad4e'
p439
(dp440
g3
S'172.17.10.114'
p441
sg5
S'Vlan220'
p442
sg15
S'agcn1-laptop52'
p443
ssS'4843.7ccc.eb30'
p444
(dp445
g24
S'172.17.50.55'
p446
sg26
S'Vlan208'
p447
ssS'0004.f2a8.de0f'
p448
(dp449
g3
S'172.17.4.3'
p450
sg5
S'Vlan204'
p451
ssS'0025.64bb.8c1e'
p452
(dp453
g3
S'172.17.51.93'
p454
sg5
S'Vlan206'
p455
sg15
S'agcn1-wkeng115'
p456
ssS'5c51.4fa9.2e5f'
p457
(dp458
g3
S'172.17.10.106'
p459
sg5
S'Vlan220'
p460
ssS'0024.2c27.be8f'
p461
(dp462
g3
S'172.17.101.107'
p463
sg5
S'Vlan211'
p464
sg15
S'agcn1-laptop37'
p465
ssS'f4ce.4649.fa89'
p466
(dp467
g3
S'172.17.53.30'
p468
sg5
S'Vlan209'
p469
ssS'f8b1.569f.38de'
p470
(dp471
g3
S'172.17.101.85'
p472
sg5
S'Vlan211'
p473
sg15
S'agcn1-wkeng238'
p474
ssS'b8ca.3a78.33aa'
p475
(dp476
g3
S'172.17.105.169'
p477
sg5
S'Vlan215'
p478
sg15
S'agcn1-wkeng180'
p479
ssS'000c.295f.9d92'
p480
(dp481
g24
S'172.17.3.85'
p482
sg26
S'Vlan216'
p483
ssS'c064.c6fe.45f0'
p484
(dp485
g3
S'172.17.10.84'
p486
sg5
S'Vlan220'
p487
ssS'000c.2930.d112'
p488
(dp489
g3
S'172.17.101.6'
p490
sg5
S'Vlan211'
p491
ssS'0023.ae7c.383d'
p492
(dp493
g41
S'172.17.3.79'
p494
sg43
S'Vlan216'
p495
sg45
g46
ssS'5c26.0a77.fe30'
p496
(dp497
g3
S'172.17.110.119'
p498
sg5
S'Vlan225'
p499
sg15
S'agcn1-laptop39'
p500
ssS'f8b1.569a.2406'
p501
(dp502
g24
S'172.17.102.54'
p503
sg26
S'Vlan214'
p504
sg15
S'agcn1-wkeng229'
p505
ssS'0026.b9de.c166'
p506
(dp507
g3
S'172.17.110.127'
p508
sg5
S'Vlan225'
p509
sg15
S'agcn1-laptop029'
p510
ssS'0c30.21c9.4b53'
p511
(dp512
g3
S'172.17.103.231'
p513
sg5
S'Vlan212'
p514
ssS'd4be.d902.5b4a'
p515
(dp516
g43
S'Vlan215'
p517
sS'IT_tag'
p518
S'agcn1-laptop99'
p519
sg45
g46
sg41
S'172.17.105.59'
p520
ssS'5c26.0a4b.badd'
p521
(dp522
g3
S'172.17.103.178'
p523
sg5
S'Vlan212'
p524
sg15
S'agcn1-laptop35'
p525
ssS'3417.ebb1.1033'
p526
(dp527
g3
S'172.17.104.68'
p528
sg5
S'Vlan210'
p529
sg15
S'agcn1-wkeng274'
p530
ssS'f01f.af4c.78bd'
p531
(dp532
g3
S'172.17.101.119'
p533
sg5
S'Vlan211'
p534
sg15
S'agcn1-laptop63'
p535
ssS'0004.f229.def1'
p536
(dp537
g3
S'172.17.4.4'
p538
sg5
S'Vlan204'
p539
ssS'3417.ebb1.0cfb'
p540
(dp541
g3
S'172.17.101.98'
p542
sg5
S'Vlan211'
p543
sg15
S'agcn1-wkeng267'
p544
ssS'0024.e891.ec14'
p545
(dp546
g3
S'172.17.3.10'
p547
sg5
S'Vlan216'
p548
sg15
S'agcn1-laptop10'
p549
ssS'b8ac.6f3e.a853'
p550
(dp551
g3
S'172.17.105.137'
p552
sg5
S'Vlan215'
p553
sg15
S'agcn1-wkeng24'
p554
ssS'000c.2935.90fc'
p555
(dp556
g3
S'172.17.104.28'
p557
sg5
S'Vlan210'
p558
ssS'f8b1.56d0.2320'
p559
(dp560
g3
S'172.17.105.163'
p561
sg5
S'Vlan215'
p562
sg15
S'agcn1-wkeng247'
p563
ssS'f8b1.569f.37f0'
p564
(dp565
g3
S'172.17.105.122'
p566
sg5
S'Vlan215'
p567
sg15
S'agcn1-wkeng235'
p568
ssS'7831.c1c5.15d0'
p569
(dp570
g3
S'172.17.104.73'
p571
sg5
S'Vlan210'
p572
ssS'0c1d.afd3.292e'
p573
(dp574
g3
S'172.17.103.201'
p575
sg5
S'Vlan212'
p576
ssS'0025.4bb3.9ee6'
p577
(dp578
g3
S'172.17.101.112'
p579
sg5
S'Vlan211'
p580
ssS'0018.0a34.cc56'
p581
(dp582
g3
S'172.17.6.24'
p583
sg5
S'Vlan203'
p584
ssS'001d.0910.39fc'
p585
(dp586
g3
S'172.17.5.100'
p587
sg5
S'Vlan205'
p588
sg15
S'agcn1-ap01'
p589
ssS'3417.ebd0.bfc7'
p590
(dp591
g3
S'172.17.101.208'
p592
sg5
S'Vlan211'
p593
sg15
S'agcn1-wkeng305'
p594
ssS'0022.1966.accf'
p595
(dp596
g3
S'172.17.3.103'
p597
sg5
S'Vlan216'
p598
ssS'bc30.5ba2.b128'
p599
(dp600
g3
S'172.17.101.129'
p601
sg5
S'Vlan211'
p602
sg15
S'agcn1-wkeng134'
p603
ssS'000c.29b9.0bc7'
p604
(dp605
g3
S'172.17.101.17'
p606
sg5
S'Vlan211'
p607
ssS'f8b1.56d9.111d'
p608
(dp609
g3
S'172.17.105.81'
p610
sg5
S'Vlan215'
p611
sg15
S'agcn1-wkeng256'
p612
ssS'000c.2964.149a'
p613
(dp614
g3
S'172.17.111.191'
p615
sg5
S'Vlan226'
p616
ssS'0060.6f4d.3031'
p617
(dp618
g3
S'172.17.5.2'
p619
sg5
S'Vlan205'
p620
ssS'000c.2915.85e1'
p621
(dp622
g3
S'172.17.101.29'
p623
sg5
S'Vlan211'
p624
ssS'90b1.1c7a.0b76'
p625
(dp626
g3
S'172.17.110.124'
p627
sg5
S'Vlan225'
p628
sg15
S'agcn1-wkeng155'
p629
ssS'000c.29a4.8771'
p630
(dp631
g3
S'172.17.3.107'
p632
sg5
S'Vlan216'
p633
ssS'3417.ebc2.c4e4'
p634
(dp635
g3
S'172.17.103.225'
p636
sg5
S'Vlan212'
p637
sg15
S'agcn1-wkeng288'
p638
ssS'0023.ae7c.36ac'
p639
(dp640
g3
S'172.17.104.75'
p641
sg5
S'Vlan210'
p642
sg15
S'agcn1-wkeng80'
p643
ssS'08d0.9f74.17c1'
p644
(dp645
g3
S'172.17.1.6'
p646
sg5
S'Vlan218'
p647
ssS'd4be.d975.2022'
p648
(dp649
g3
S'172.17.104.78'
p650
sg5
S'Vlan210'
p651
sg15
S'agcn1-laptop58'
p652
ssS'5c26.0a24.612e'
p653
(dp654
g3
S'172.17.105.54'
p655
sg5
S'Vlan215'
p656
sg15
S'agcn1-wkeng31'
p657
ssS'0026.b9de.c22c'
p658
(dp659
g24
S'172.17.103.223'
p660
sg26
S'Vlan212'
p661
ssS'3ca9.f404.7fe8'
p662
(dp663
g3
S'172.17.104.53'
p664
sg5
S'Vlan210'
p665
sg15
S'agcn1-laptop56'
p666
ssS'0025.64bb.894d'
p667
(dp668
g3
S'172.17.105.175'
p669
sg5
S'Vlan215'
p670
sg15
S'agcn1-wkeng100'
p671
ssS'd0c7.89ac.17c1'
p672
(dp673
g3
S'172.17.1.13'
p674
sg5
S'Vlan218'
p675
ssS'0060.6f6a.506b'
p676
(dp677
g3
S'172.17.5.10'
p678
sg5
S'Vlan205'
p679
ssS'bc30.5ba7.4177'
p680
(dp681
g3
S'172.17.105.90'
p682
sg5
S'Vlan215'
p683
sg15
S'agcn1-wkeng138'
p684
ssS'3417.ebc5.247b'
p685
(dp686
g3
S'172.17.104.71'
p687
sg5
S'Vlan210'
p688
sg15
S'agcn1-wkeng289'
p689
ssS'000c.29d5.53a2'
p690
(dp691
g3
S'172.17.111.11'
p692
sg5
S'Vlan226'
p693
ssS'90b1.1c9d.40f6'
p694
(dp695
g3
S'172.17.103.189'
p696
sg5
S'Vlan212'
p697
sg15
S'agcn1-wkeng173'
p698
ssS'787e.61b5.dadf'
p699
(dp700
g3
S'172.17.102.61'
p701
sg5
S'Vlan214'
p702
ssS'80cf.4163.459b'
p703
(dp704
g3
S'172.17.110.106'
p705
sg5
S'Vlan225'
p706
ssS'b8ac.6f3e.900a'
p707
(dp708
g3
S'172.17.52.3'
p709
sg5
S'Vlan207'
p710
sg15
S'agcn1-wkeng121'
p711
ssS'b8ca.3a97.5f86'
p712
(dp713
g3
S'172.17.101.110'
p714
sg5
S'Vlan211'
p715
sg15
S'agcn1-wkeng207'
p716
ssS'3417.ebd0.bd99'
p717
(dp718
g3
S'172.17.101.182'
p719
sg5
S'Vlan211'
p720
sg15
S'agcn1-wkeng306'
p721
ssS'3417.ebb1.07ff'
p722
(dp723
g3
S'172.17.105.83'
p724
sg5
S'Vlan215'
p725
sg15
S'agcn1-wkeng272'
p726
ssS'f01f.af4c.8676'
p727
(dp728
g3
S'172.17.101.146'
p729
sg5
S'Vlan211'
p730
sg15
S'agcn1-laptop64'
p731
ssS'3417.ebb1.0972'
p732
(dp733
g3
S'172.17.110.79'
p734
sg5
S'Vlan225'
p735
sg15
S'agcn1-wkeng269'
p736
ssS'0025.64bb.8a34'
p737
(dp738
g3
S'172.17.110.117'
p739
sg5
S'Vlan225'
p740
sg15
S'agcn1-wkeng116'
p741
ssS'000c.29c8.a87d'
p742
(dp743
g41
S'172.17.101.40'
p744
sg43
S'Vlan211'
p745
sg45
g46
ssS'9cf3.8707.ab90'
p746
(dp747
g3
S'172.17.104.70'
p748
sg5
S'Vlan210'
p749
ssS'b8ac.6f2e.7f23'
p750
(dp751
g3
S'172.17.101.132'
p752
sg5
S'Vlan211'
p753
sg15
S'agcn1-wkeng21'
p754
ssS'000c.291c.301a'
p755
(dp756
g3
S'172.17.3.2'
p757
sg5
S'Vlan216'
p758
sg15
S'agcn1-ut01'
p759
ssS'3417.eba1.cf2f'
p760
(dp761
g3
S'172.17.105.73'
p762
sg5
S'Vlan215'
p763
sg15
S'agcn1-wkeng261'
p764
ssS'90b1.1c95.3b78'
p765
(dp766
g24
S'172.17.103.192'
p767
sg26
S'Vlan212'
p768
sg15
S'agcn1-wkeng166'
p769
ssS'0021.d7f7.67c1'
p770
(dp771
g3
S'172.17.1.4'
p772
sg5
S'Vlan218'
p773
ssS'f8b1.56d0.1c84'
p774
(dp775
g3
S'172.17.104.98'
p776
sg5
S'Vlan210'
p777
sg15
S'agcn1-wkeng250'
p778
ssS'001e.799a.12c1'
p779
(dp780
g3
S'172.17.1.3'
p781
sg5
S'Vlan218'
p782
ssS'0060.6f4d.0311'
p783
(dp784
g3
S'172.17.5.3'
p785
sg5
S'Vlan205'
p786
ssS'3417.ebd0.c19b'
p787
(dp788
g3
S'172.17.101.159'
p789
sg5
S'Vlan211'
p790
sg15
S'agcn1-wkeng295'
p791
ssS'4874.6e7e.d904'
p792
(dp793
g3
S'172.17.103.210'
p794
sg5
S'Vlan212'
p795
ssS'b8ac.6f2e.8b32'
p796
(dp797
g3
S'172.17.101.134'
p798
sg5
S'Vlan211'
p799
sg15
S'agcn1-wkeng113'
p800
ssS'000c.29b1.eaaa'
p801
(dp802
g3
S'172.17.111.12'
p803
sg5
S'Vlan226'
p804
ssS'b8ca.3ac6.a8c5'
p805
(dp806
g3
S'172.17.101.120'
p807
sg5
S'Vlan211'
p808
sg15
S'agcn1-laptop53'
p809
ssS'000c.290c.198b'
p810
(dp811
g3
S'172.17.101.21'
p812
sg5
S'Vlan211'
p813
ssS'3417.ebd1.3237'
p814
(dp815
g3
S'172.17.108.92'
p816
sg5
S'Vlan223'
p817
sg15
S'agcn1-wkeng300'
p818
ssS'000c.29e0.06c9'
p819
(dp820
g3
S'172.17.101.5'
p821
sg5
S'Vlan211'
p822
ssS'0024.e89a.6417'
p823
(dp824
g3
S'172.17.51.77'
p825
sg5
S'Vlan206'
p826
ssS'3417.ebd0.be0c'
p827
(dp828
g24
S'172.17.104.60'
p829
sg26
S'Vlan210'
p830
sg15
S'agcn1-wkeng307'
p831
ssS'd4be.d913.31a0'
p832
(dp833
g3
S'172.17.10.111'
p834
sg5
S'Vlan220'
p835
ssS'bc30.5ba7.d7b2'
p836
(dp837
g3
S'172.17.103.197'
p838
sg5
S'Vlan212'
p839
sg15
S'agcn1-wkeng133'
p840
ssS'ac3c.0b8a.891b'
p841
(dp842
g3
S'172.17.10.103'
p843
sg5
S'Vlan220'
p844
ssS'5c50.150f.3142'
p845
(dp846
g3
S'172.17.1.10'
p847
sg5
S'Vlan218'
p848
ssS'90b1.1c7a.0c03'
p849
(dp850
g43
S'Vlan215'
p851
sg518
S'agcn1-wkeng154'
p852
sg45
g46
sg41
S'172.17.105.58'
p853
ssS'6003.0889.b526'
p854
(dp855
g24
S'172.17.50.56'
p856
sg26
S'Vlan208'
p857
ssS'3417.ebd1.232d'
p858
(dp859
g24
S'172.17.104.62'
p860
sg26
S'Vlan210'
p861
sg15
S'agcn1-wkeng311'
p862
ssS'3417.ebd0.be02'
p863
(dp864
g3
S'172.17.102.78'
p865
sg5
S'Vlan214'
p866
sg15
S'agcn1-wkeng301'
p867
ssS'00e0.4c68.03e0'
p868
(dp869
g24
S'172.17.103.205'
p870
sg26
S'Vlan212'
p871
ssS'b8ca.3aa9.ac46'
p872
(dp873
g3
S'172.17.101.123'
p874
sg5
S'Vlan211'
p875
sg15
S'agcn1-wkeng218'
p876
ssS'1803.7331.054e'
p877
(dp878
g3
S'172.17.105.134'
p879
sg5
S'Vlan215'
p880
sg15
S'agcn1-wkeng145'
p881
ssS'3417.eba1.da0b'
p882
(dp883
g41
S'172.17.101.41'
p884
sg43
S'Vlan211'
p885
sg45
g46
ssS'0025.64bb.8983'
p886
(dp887
g24
S'172.17.111.58'
p888
sg26
S'Vlan226'
p889
sg15
S'agcn1-wkeng114'
p890
ssS'1803.7331.3223'
p891
(dp892
g3
S'172.17.53.53'
p893
sg5
S'Vlan209'
p894
sg15
S'agcn1-wkeng142'
p895
ssS'b8ca.3aa9.ad3e'
p896
(dp897
g3
S'172.17.110.96'
p898
sg5
S'Vlan225'
p899
sg15
S'agcn1-wkeng220'
p900
ssS'f8b1.56d9.108b'
p901
(dp902
g24
S'172.17.104.57'
p903
sg26
S'Vlan210'
p904
sg15
S'agcn1-wkeng257'
p905
ssS'f01f.af4c.81eb'
p906
(dp907
g3
S'172.17.107.50'
p908
sg5
S'Vlan222'
p909
sg15
S'agcn1-laptop62'
p910
ssS'b8ca.3a97.5fc2'
p911
(dp912
g3
S'172.17.101.26'
p913
sg5
S'Vlan211'
p914
ssS'1859.3623.d715'
p915
(dp916
g24
S'172.17.105.80'
p917
sg26
S'Vlan215'
p918
ssS'90b1.1c95.231a'
p919
(dp920
g3
S'172.17.101.188'
p921
sg5
S'Vlan211'
p922
sg15
S'agcn1-wkeng168'
p923
ssS'3417.ebd0.c003'
p924
(dp925
g3
S'172.17.103.204'
p926
sg5
S'Vlan212'
p927
sg15
S'agcn1-wkeng296'
p928
ssS'0025.64bb.8a0b'
p929
(dp930
g3
S'172.17.101.139'
p931
sg5
S'Vlan211'
p932
sg15
S'agcn1-wkeng74'
p933
ssS'000c.29b1.825e'
p934
(dp935
g24
S'172.17.101.48'
p936
sg26
S'Vlan211'
p937
ssS'f8b1.569f.407d'
p938
(dp939
g3
S'172.17.110.110'
p940
sg5
S'Vlan225'
p941
sg15
S'agcn1-wkeng226'
p942
ssS'b8ca.3a90.f679'
p943
(dp944
g43
S'Vlan216'
p945
sg518
S'agcn1-wkeng196'
p946
sg45
g46
sg41
S'172.17.3.64'
p947
ssS'28d2.444d.152a'
p948
(dp949
g24
S'172.17.111.60'
p950
sg26
S'Vlan226'
p951
sg15
S'agcn1-laptop85'
p952
ssS'40a8.f0b5.943f'
p953
(dp954
g3
S'172.17.3.15'
p955
sg5
S'Vlan216'
p956
ssS'000c.2907.4239'
p957
(dp958
g3
S'172.17.101.12'
p959
sg5
S'Vlan211'
p960
ssS'90b1.1c95.3641'
p961
(dp962
g3
S'172.17.101.149'
p963
sg5
S'Vlan211'
p964
sg15
S'agcn1-wkeng170'
p965
ssS'14f6.5af4.b91d'
p966
(dp967
g24
S'172.17.103.228'
p968
sg26
S'Vlan212'
p969
ssS'b8ca.3aa9.ab96'
p970
(dp971
g3
S'172.17.101.148'
p972
sg5
S'Vlan211'
p973
sg15
S'agcn1-wkeng216'
p974
ssS'b8ca.3a7f.9171'
p975
(dp976
g3
S'172.17.110.102'
p977
sg5
S'Vlan225'
p978
sg15
S'agcn1-wkeng183'
p979
ssS'986c.f565.3f79'
p980
(dp981
g24
S'172.17.10.94'
p982
sg26
S'Vlan220'
p983
ssS'000c.299c.5e64'
p984
(dp985
g41
S'172.17.101.36'
p986
sg43
S'Vlan211'
p987
sg45
g46
ssS'0018.0a31.ba4e'
p988
(dp989
g3
S'172.17.6.11'
p990
sg5
S'Vlan203'
p991
ssS'000c.29b2.3b42'
p992
(dp993
g3
S'172.17.3.8'
p994
sg5
S'Vlan216'
p995
ssS'90b1.1c91.47b9'
p996
(dp997
g3
S'172.17.103.173'
p998
sg5
S'Vlan212'
p999
sg15
S'agcn1-wkeng161'
p1000
ssS'3417.ebb1.0989'
p1001
(dp1002
g3
S'172.17.105.184'
p1003
sg5
S'Vlan215'
p1004
sg15
S'agcn1-wkeng270'
p1005
ssS'0025.64bb.8c7c'
p1006
(dp1007
g3
S'172.17.103.182'
p1008
sg5
S'Vlan212'
p1009
sg15
S'agcn1-wkeng78'
p1010
ssS'b8ac.6f3e.a831'
p1011
(dp1012
g3
S'172.17.3.91'
p1013
sg5
S'Vlan216'
p1014
ssS'142d.270d.facd'
p1015
(dp1016
g24
S'172.17.102.60'
p1017
sg26
S'Vlan214'
p1018
sg15
S'AGCN1-LATOP55'
p1019
ssS'28d2.4447.738c'
p1020
(dp1021
g3
S'172.17.110.98'
p1022
sg5
S'Vlan225'
p1023
sg15
S'agcn1-laptop80'
p1024
ssS'000c.2958.8c33'
p1025
(dp1026
g3
S'172.17.101.22'
p1027
sg5
S'Vlan211'
p1028
ssS'5c26.0a4b.bc48'
p1029
(dp1030
g3
S'172.17.103.213'
p1031
sg5
S'Vlan212'
p1032
sg15
S'agcn1-laptop14'
p1033
ssS'd4be.d9f7.00f1'
p1034
(dp1035
g3
S'172.17.3.102'
p1036
sg5
S'Vlan216'
p1037
ssS'f8b1.56d0.1c45'
p1038
(dp1039
g3
S'172.17.105.111'
p1040
sg5
S'Vlan215'
p1041
sg15
S'agcn1-wkeng248'
p1042
ssS'3417.ebd0.c1d7'
p1043
(dp1044
g3
S'172.17.103.206'
p1045
sg5
S'Vlan212'
p1046
sg15
S'agcn1-wkeng299'
p1047
ssS'0c27.247b.2041'
p1048
(dp1049
g3
S'172.17.1.11'
p1050
sg5
S'Vlan218'
p1051
ssS'1859.3679.7118'
p1052
(dp1053
g3
S'172.17.10.97'
p1054
sg5
S'Vlan220'
p1055
ssS'b8ca.3a90.f7a1'
p1056
(dp1057
g24
S'172.17.105.57'
p1058
sg26
S'Vlan215'
p1059
sg15
S'agcn1-wkeng199'
p1060
ssS'0023.7d8c.110f'
p1061
(dp1062
g3
S'172.17.3.7'
p1063
sg5
S'Vlan216'
p1064
ssS'c8e0.eb6c.aea1'
p1065
(dp1066
g3
S'172.17.10.86'
p1067
sg5
S'Vlan220'
p1068
ssS'000c.29c1.58e5'
p1069
(dp1070
g3
S'172.17.3.21'
p1071
sg5
S'Vlan216'
p1072
ssS'000c.291a.e5b4'
p1073
(dp1074
g41
S'172.17.101.47'
p1075
sg43
S'Vlan211'
p1076
sg45
g46
ssS'20c9.d089.0f6d'
p1077
(dp1078
g3
S'172.17.101.150'
p1079
sg5
S'Vlan211'
p1080
ssS'001c.f698.0bc2'
p1081
(dp1082
g3
S'172.17.1.12'
p1083
sg5
S'Vlan218'
p1084
ssS'000c.291a.2bf6'
p1085
(dp1086
g3
S'172.17.101.28'
p1087
sg5
S'Vlan211'
p1088
ssS'3417.ebb1.0c50'
p1089
(dp1090
g3
S'172.17.108.51'
p1091
sg5
S'Vlan223'
p1092
sg15
S'agcn1-wkeng273'
p1093
ssS'000c.2992.e254'
p1094
(dp1095
g3
S'172.17.105.14'
p1096
sg5
S'Vlan215'
p1097
ssS'b8ca.3a7f.81a9'
p1098
(dp1099
g3
S'172.17.101.137'
p1100
sg5
S'Vlan211'
p1101
sg15
S'agcn1-wkeng187'
p1102
ssS'3417.ebb1.07a3'
p1103
(dp1104
g3
S'172.17.101.136'
p1105
sg5
S'Vlan211'
p1106
sg15
S'agcn1-wkeng281'
p1107
ssS'7c1d.d974.33f8'
p1108
(dp1109
g24
S'172.17.103.226'
p1110
sg26
S'Vlan212'
p1111
ssS'0025.64bb.8cf5'
p1112
(dp1113
g3
S'172.17.101.2'
p1114
sg5
S'Vlan211'
p1115
ssS'60f8.1d41.0354'
p1116
(dp1117
g3
S'172.17.101.155'
p1118
sg5
S'Vlan211'
p1119
ssS'90b1.1c79.fc31'
p1120
(dp1121
g3
S'172.17.101.130'
p1122
sg5
S'Vlan211'
p1123
sg15
S'agcn1-wkeng158'
p1124
ssS'0018.0a34.cc4e'
p1125
(dp1126
g3
S'172.17.6.22'
p1127
sg5
S'Vlan203'
p1128
ssS'3417.ebd0.bc9d'
p1129
(dp1130
g3
S'172.17.101.135'
p1131
sg5
S'Vlan211'
p1132
sg15
S'agcn1-wkeng309'
p1133
ssS'0017.a497.c987'
p1134
(dp1135
g3
S'172.17.53.31'
p1136
sg5
S'Vlan209'
p1137
ssS'6003.0899.8fd2'
p1138
(dp1139
g3
S'172.17.10.96'
p1140
sg5
S'Vlan220'
p1141
ssS'1803.7331.31da'
p1142
(dp1143
g3
S'172.17.102.64'
p1144
sg5
S'Vlan214'
p1145
sg15
S'agcn1-wkeng150'
p1146
ssS'b8ca.3a97.e942'
p1147
(dp1148
g3
S'172.17.105.82'
p1149
sg5
S'Vlan215'
p1150
sg15
S'agcn1-wkeng206'
p1151
ssS'3417.ebc2.c521'
p1152
(dp1153
g3
S'172.17.110.215'
p1154
sg5
S'Vlan225'
p1155
sg15
S'agcn1-wkeng290'
p1156
ssS'3ca9.f404.d340'
p1157
(dp1158
g24
S'172.17.101.121'
p1159
sg26
S'Vlan211'
p1160
ssS'5c26.0a4b.bc4f'
p1161
(dp1162
g3
S'172.17.101.118'
p1163
sg5
S'Vlan211'
p1164
ssS'3417.ebd1.2909'
p1165
(dp1166
g24
S'172.17.104.59'
p1167
sg26
S'Vlan210'
p1168
sg15
S'AGCN1-WKENG310'
p1169
ssS'b8ca.3a84.3751'
p1170
(dp1171
g3
S'172.17.101.124'
p1172
sg5
S'Vlan211'
p1173
sg15
S'agcn1-wkeng190'
p1174
ssS'000c.290d.2da6'
p1175
(dp1176
g3
S'172.17.105.16'
p1177
sg5
S'Vlan215'
p1178
ssS'b8ca.3a78.35af'
p1179
(dp1180
g3
S'172.17.111.55'
p1181
sg5
S'Vlan226'
p1182
sg15
S'agcn1-wkeng181'
p1183
ssS'f8b1.56d9.10ec'
p1184
(dp1185
g3
S'172.17.101.88'
p1186
sg5
S'Vlan211'
p1187
sg15
S'agcn1-wkeng255'
p1188
ssS'0004.f22c.7752'
p1189
(dp1190
g3
S'172.17.4.6'
p1191
sg5
S'Vlan204'
p1192
ssS'0018.0a83.1620'
p1193
(dp1194
g3
S'172.17.6.25'
p1195
sg5
S'Vlan203'
p1196
ssS'f8b1.56d0.1f20'
p1197
(dp1198
g3
S'172.17.101.104'
p1199
sg5
S'Vlan211'
p1200
sg15
S'agcn1-wkeng243'
p1201
ssS'90b1.1c95.3ab1'
p1202
(dp1203
g3
S'172.17.103.224'
p1204
sg5
S'Vlan212'
p1205
sg15
S'agcn1-wkeng171'
p1206
ssS'b8ca.3aa9.d425'
p1207
(dp1208
g3
S'172.17.110.97'
p1209
sg5
S'Vlan225'
p1210
sg15
S'agcn1-wkeng223'
p1211
ssS'7c1d.d9f5.e527'
p1212
(dp1213
g3
S'172.17.101.145'
p1214
sg5
S'Vlan211'
p1215
ssS'b8ca.3a97.e00d'
p1216
(dp1217
g3
S'172.17.103.184'
p1218
sg5
S'Vlan212'
p1219
sg15
S'agcn1-wkeng205'
p1220
ssS'8056.f23a.f5a6'
p1221
(dp1222
g3
S'172.17.101.138'
p1223
sg5
S'Vlan211'
p1224
sg15
S'agcn1-laptop65'
p1225
ssS'000c.29cd.30ed'
p1226
(dp1227
g3
S'172.17.101.24'
p1228
sg5
S'Vlan211'
p1229
ssS'b8ca.3a97.6645'
p1230
(dp1231
g3
S'172.17.111.54'
p1232
sg5
S'Vlan226'
p1233
sg15
S'agcn1-wkeng214'
p1234
ssS'b8ca.3a97.5ff5'
p1235
(dp1236
g3
S'172.17.103.183'
p1237
sg5
S'Vlan212'
p1238
sg15
S'agcn1-wkeng212'
p1239
ssS'bc30.5ba7.d88c'
p1240
(dp1241
g3
S'172.17.110.114'
p1242
sg5
S'Vlan225'
p1243
sg15
S'agcn1-wkeng139'
p1244
ssS'acf7.f346.e463'
p1245
(dp1246
g3
S'172.17.10.99'
p1247
sg5
S'Vlan220'
p1248
ssS'100b.a936.f79c'
p1249
(dp1250
g3
S'172.17.105.76'
p1251
sg5
S'Vlan215'
p1252
sg15
S'agcn1-laptop45'
p1253
ssS'3417.ebd1.22a8'
p1254
(dp1255
g3
S'172.17.110.113'
p1256
sg5
S'Vlan225'
p1257
sg15
S'agcn1-wkeng312'
p1258
ssS'b8ca.3a7f.7dc4'
p1259
(dp1260
g3
S'172.17.105.185'
p1261
sg5
S'Vlan215'
p1262
sg15
S'agcn1-wkeng184'
p1263
ssS'000c.29b8.4d17'
p1264
(dp1265
g3
S'172.17.101.25'
p1266
sg5
S'Vlan211'
p1267
ssS'0018.0a34.d57c'
p1268
(dp1269
g3
S'172.17.6.23'
p1270
sg5
S'Vlan203'
p1271
ssS'0004.f22c.761f'
p1272
(dp1273
g3
S'172.17.4.5'
p1274
sg5
S'Vlan204'
p1275
ssS'8056.f23a.f5ab'
p1276
(dp1277
g3
S'172.17.105.88'
p1278
sg5
S'Vlan215'
p1279
sg15
S'agcn1-laptop61'
p1280
ssS'8056.f23a.f5aa'
p1281
(dp1282
g24
S'172.17.101.152'
p1283
sg26
S'Vlan211'
p1284
ssS'f8b1.569f.3fb3'
p1285
(dp1286
g3
S'172.17.105.123'
p1287
sg5
S'Vlan215'
p1288
sg15
S'agcn1-wkeng240'
p1289
ssS'b8ca.3a7f.8b23'
p1290
(dp1291
g3
S'172.17.103.191'
p1292
sg5
S'Vlan212'
p1293
sg15
S'agcn1-wkeng185'
p1294
ssS'8cae.4cec.1ecb'
p1295
(dp1296
g3
S'172.17.53.85'
p1297
sg5
S'Vlan209'
p1298
sg15
S'agcn1-laptop87'
p1299
ssS'3417.ebc5.2284'
p1300
(dp1301
g3
S'172.17.105.167'
p1302
sg5
S'Vlan215'
p1303
sg15
S'agcn1-wkeng282'
p1304
ssS'000c.29fc.7bed'
p1305
(dp1306
g41
S'172.17.101.38'
p1307
sg43
S'Vlan211'
p1308
sg45
g46
ssS'bc30.5ba7.d8d0'
p1309
(dp1310
g3
S'172.17.7.51'
p1311
sg5
S'Vlan201'
p1312
sg15
S'agcn1-wkeng135'
p1313
ssS'3417.ebb1.0667'
p1314
(dp1315
g3
S'172.17.101.209'
p1316
sg5
S'Vlan211'
p1317
sg15
S'agcn1-wkeng280'
p1318
ssS'f8b1.56d0.1a50'
p1319
(dp1320
g3
S'172.17.101.133'
p1321
sg5
S'Vlan211'
p1322
sg15
S'agcn1-wkeng242'
p1323
ssS'f8b1.569f.4021'
p1324
(dp1325
g3
S'172.17.103.186'
p1326
sg5
S'Vlan212'
p1327
sg15
S'agcn1-wkeng241'
p1328
ssS'f8b1.56de.08a2'
p1329
(dp1330
g24
S'172.17.101.125'
p1331
sg26
S'Vlan211'
p1332
sg15
S'agcn1-wkeng254'
p1333
ssS'f027.655a.9ddb'
p1334
(dp1335
g3
S'172.17.103.100'
p1336
sg5
S'Vlan212'
p1337
ssS'685b.35aa.714a'
p1338
(dp1339
g3
S'172.17.53.68'
p1340
sg5
S'Vlan209'
p1341
ssS'1803.7331.317c'
p1342
(dp1343
g3
S'172.17.105.164'
p1344
sg5
S'Vlan215'
p1345
sg15
S'agcn1-wkeng149'
p1346
ssS'0060.6f4d.0303'
p1347
(dp1348
g3
S'172.17.5.6'
p1349
sg5
S'Vlan205'
p1350
ssS'000c.29ee.032e'
p1351
(dp1352
g3
S'172.17.102.11'
p1353
sg5
S'Vlan214'
p1354
ssS'000c.296f.d8fa'
p1355
(dp1356
g3
S'172.17.101.30'
p1357
sg5
S'Vlan211'
p1358
ssS'000c.29e0.e6f0'
p1359
(dp1360
g3
S'172.17.101.10'
p1361
sg5
S'Vlan211'
p1362
ssS'90b1.1c91.5359'
p1363
(dp1364
g3
S'172.17.110.83'
p1365
sg5
S'Vlan225'
p1366
sg15
S'agcn1-wkeng164'
p1367
ssS'0023.14b5.4dc0'
p1368
(dp1369
g3
S'172.17.103.235'
p1370
sg5
S'Vlan212'
p1371
sg15
S'agcn1-laptop23'
p1372
ssS'd4be.d913.31b1'
p1373
(dp1374
g24
S'172.17.103.227'
p1375
sg26
S'Vlan212'
p1376
sg15
S'agcn1-laptop47'
p1377
ssS'd4be.d913.31b2'
p1378
(dp1379
g24
S'172.17.105.79'
p1380
sg26
S'Vlan215'
p1381
ssS'3417.ebd0.b8da'
p1382
(dp1383
g3
S'172.17.103.193'
p1384
sg5
S'Vlan212'
p1385
sg15
S'agcn1-wkeng298'
p1386
ssS'001e.79cf.aa42'
p1387
(dp1388
g3
S'172.17.1.2'
p1389
sg5
S'Vlan218'
p1390
ssS'b8ac.6f2e.88f7'
p1391
(dp1392
g3
S'172.17.51.50'
p1393
sg5
S'Vlan206'
p1394
sg15
S'agcn1-wkeng108'
p1395
ssS'1803.7331.3177'
p1396
(dp1397
g3
S'172.17.103.200'
p1398
sg5
S'Vlan212'
p1399
sg15
S'agcn1-wkeng153'
p1400
ssS'b8ac.6f3e.a4ba'
p1401
(dp1402
g3
S'172.17.104.109'
p1403
sg5
S'Vlan210'
p1404
sg15
S'agcn1-wkeng123'
p1405
ssS'b8ca.3a84.3d14'
p1406
(dp1407
g3
S'172.17.104.65'
p1408
sg5
S'Vlan210'
p1409
sg15
S'agcn1-wkeng193'
p1410
ssS'f01f.af4c.7868'
p1411
(dp1412
g3
S'172.17.101.140'
p1413
sg5
S'Vlan211'
p1414
sg15
S'agcn1-laptop65'
p1415
ssS'441e.a132.1dc6'
p1416
(dp1417
g3
S'172.17.3.9'
p1418
sg5
S'Vlan216'
p1419
ssS'f01f.af4c.8597'
p1420
(dp1421
g24
S'172.17.105.62'
p1422
sg26
S'Vlan215'
p1423
sg15
S'agcn1-laptop61'
p1424
ssS'b8ca.3a97.5fe6'
p1425
(dp1426
g3
S'172.17.105.130'
p1427
sg5
S'Vlan215'
p1428
sg15
S'agcn1-wkeng203'
p1429
ssS'0060.6f4d.3011'
p1430
(dp1431
g3
S'172.17.5.7'
p1432
sg5
S'Vlan205'
p1433
ssS'f4f1.5a62.26af'
p1434
(dp1435
g3
S'172.17.103.196'
p1436
sg5
S'Vlan212'
p1437
ssS'f04d.a239.e281'
p1438
(dp1439
g3
S'172.17.105.136'
p1440
sg5
S'Vlan215'
p1441
sg15
S'agcn1-wkeng128'
p1442
ssS'90b1.1c91.4c0e'
p1443
(dp1444
g3
S'172.17.105.145'
p1445
sg5
S'Vlan215'
p1446
sg15
S'agcn1-wkeng160'
p1447
ssS'3417.eba1.d857'
p1448
(dp1449
g3
S'172.17.101.176'
p1450
sg5
S'Vlan211'
p1451
sg15
S'agcn1-wkeng252'
p1452
ssS'3417.ebb1.0e07'
p1453
(dp1454
g3
S'172.17.110.121'
p1455
sg5
S'Vlan225'
p1456
sg15
S'agcn1-wkeng265'
p1457
ssS'b40b.4404.0406'
p1458
(dp1459
g3
S'172.17.10.83'
p1460
sg5
S'Vlan220'
p1461
ssS'b8ac.6f2e.80c8'
p1462
(dp1463
g43
S'Vlan201'
p1464
sg518
S'agcn1-wkeng112'
p1465
sg45
g46
sg41
S'172.17.7.65'
p1466
ssS'0cee.e6b5.2dba'
p1467
(dp1468
g3
S'172.17.103.170'
p1469
sg5
S'Vlan212'
p1470
sg15
S'agcn1-wkeng49'
p1471
ssS'3417.ebc2.c514'
p1472
(dp1473
g3
S'172.17.105.162'
p1474
sg5
S'Vlan215'
p1475
sg15
S'agcn1-wkeng291'
p1476
ssS'd4be.d913.34e3'
p1477
(dp1478
g24
S'172.17.102.51'
p1479
sg26
S'Vlan214'
p1480
sg15
S'agcn1-laptop48'
p1481
ssS'd4be.d957.ad1d'
p1482
(dp1483
g3
S'172.17.103.203'
p1484
sg5
S'Vlan212'
p1485
sg15
S'agcn1-laptop43'
p1486
ssS'b8ca.3aa9.abd4'
p1487
(dp1488
g3
S'172.17.103.215'
p1489
sg5
S'Vlan212'
p1490
sg15
S'agcn1-wkeng215'
p1491
ssS'90b1.1c9d.6c58'
p1492
(dp1493
g3
S'172.17.103.195'
p1494
sg5
S'Vlan212'
p1495
sg15
S'agcn1-wkeng174'
p1496
ssS'90b1.1c9d.68a2'
p1497
(dp1498
g3
S'172.17.103.105'
p1499
sg5
S'Vlan212'
p1500
sg15
S'agcn1-wkeng177'
p1501
ssS'b8ca.3a7f.785a'
p1502
(dp1503
g3
S'172.17.105.216'
p1504
sg5
S'Vlan215'
p1505
sg15
S'agcn1-wkeng191'
p1506
ssS'3417.eba4.b4f8'
p1507
(dp1508
g24
S'172.17.111.63'
p1509
sg26
S'Vlan226'
p1510
sg15
S'agcn1-wkeng262'
p1511
ssS'3417.ebc2.c228'
p1512
(dp1513
g3
S'172.17.104.67'
p1514
sg5
S'Vlan210'
p1515
sg15
S'agcn1-wkeng284'
p1516
ssS'3417.eba4.ad35'
p1517
(dp1518
g24
S'172.17.111.56'
p1519
sg26
S'Vlan226'
p1520
ssS'6c40.088b.8aec'
p1521
(dp1522
g24
S'172.17.104.56'
p1523
sg26
S'Vlan210'
p1524
ssS'bc30.5ba7.d825'
p1525
(dp1526
g3
S'172.17.101.122'
p1527
sg5
S'Vlan211'
p1528
sg15
S'agcn1-wkeng45'
p1529
ssS'f8b1.5699.c2e1'
p1530
(dp1531
g3
S'172.17.105.124'
p1532
sg5
S'Vlan215'
p1533
sg15
S'agcn1-wkeng239'
p1534
ssS'c42c.0325.4c53'
p1535
(dp1536
g3
S'172.17.103.102'
p1537
sg5
S'Vlan212'
p1538
ssS'000c.29cb.17cc'
p1539
(dp1540
g3
S'172.17.102.12'
p1541
sg5
S'Vlan214'
p1542
ssS'd850.e675.d116'
p1543
(dp1544
g3
S'172.17.103.236'
p1545
sg5
S'Vlan212'
p1546
ssS'4843.7c5a.103d'
p1547
(dp1548
g3
S'172.17.10.110'
p1549
sg5
S'Vlan220'
p1550
ssS'986c.f51f.55b6'
p1551
(dp1552
g3
S'172.17.10.98'
p1553
sg5
S'Vlan220'
p1554
ssS'3417.ebb1.069f'
p1555
(dp1556
g3
S'172.17.104.79'
p1557
sg5
S'Vlan210'
p1558
sg15
S'agcn1-wkeng268'
p1559
ssS'b8ac.6f2e.85de'
p1560
(dp1561
g3
S'172.17.102.67'
p1562
sg5
S'Vlan214'
p1563
sg15
S'agcn1-wkeng111'
p1564
ssS'000c.2947.d5df'
p1565
(dp1566
g3
S'172.17.101.14'
p1567
sg5
S'Vlan211'
p1568
ssS'3417.eba1.db34'
p1569
(dp1570
g41
S'172.17.101.45'
p1571
sg43
S'Vlan211'
p1572
sg45
g46
ssS'f8b1.56d0.20b7'
p1573
(dp1574
g41
S'172.17.101.55'
p1575
sg43
S'Vlan211'
p1576
sg45
g46
ssS'0022.1966.aa11'
p1577
(dp1578
g3
S'172.17.3.101'
p1579
sg5
S'Vlan216'
p1580
ssS'0023.551c.8477'
p1581
(dp1582
g3
S'172.17.51.60'
p1583
sg5
S'Vlan206'
p1584
sg15
S'agcn1-laptop104'
p1585
ssS'acf7.f3cb.491b'
p1586
(dp1587
g24
S'172.17.10.89'
p1588
sg26
S'Vlan220'
p1589
ssS'000c.29a6.98bb'
p1590
(dp1591
g41
S'172.17.101.37'
p1592
sg43
S'Vlan211'
p1593
sg45
g46
ssS'b8ca.3a88.662c'
p1594
(dp1595
g3
S'172.17.103.190'
p1596
sg5
S'Vlan212'
p1597
sg15
S'agcn1-wkeng194'
p1598
ssS'6033.4b24.7bab'
p1599
(dp1600
g3
S'172.17.101.77'
p1601
sg5
S'Vlan211'
p1602
ssS'3417.eba1.de4d'
p1603
(dp1604
g3
S'172.17.103.208'
p1605
sg5
S'Vlan212'
p1606
sg15
S'agcn1-wkeng258'
p1607
ssS'b8ca.3a90.0a52'
p1608
(dp1609
g43
S'Vlan226'
p1610
sg518
S'agcn1-wkeng195'
p1611
sg45
g46
sg41
S'172.17.111.61'
p1612
ssS'0018.0a85.5088'
p1613
(dp1614
g3
S'172.17.0.1'
p1615
sg5
S'Vlan3'
p1616
ssS'28b2.bd78.497a'
p1617
(dp1618
g3
S'172.17.103.237'
p1619
sg5
S'Vlan212'
p1620
sg15
S'agcn1-laptop104'
p1621
ssS'0023.ab73.39c1'
p1622
(dp1623
g3
S'172.17.1.7'
p1624
sg5
S'Vlan218'
p1625
ssS'0014.fd13.43fa'
p1626
(dp1627
g3
S'172.17.3.100'
p1628
sg5
S'Vlan216'
p1629
ssS'28d2.4471.cadc'
p1630
(dp1631
g24
S'172.17.105.56'
p1632
sg26
S'Vlan215'
p1633
sg15
S'agcn1-laptop97'
p1634
ssS'5c26.0a4b.bc50'
p1635
(dp1636
g3
S'172.17.103.202'
p1637
sg5
S'Vlan212'
p1638
sg15
S'agcn1-laptop04'
p1639
ssS'f8b1.5699.cd11'
p1640
(dp1641
g3
S'172.17.105.160'
p1642
sg5
S'Vlan215'
p1643
sg15
S'agcn1-wkeng233'
p1644
ssS'000c.29b5.9f1e'
p1645
(dp1646
g3
S'172.17.3.111'
p1647
sg5
S'Vlan216'
p1648
ssS'b8ca.3aa9.b087'
p1649
(dp1650
g3
S'172.17.3.4'
p1651
sg5
S'Vlan216'
p1652
sg15
S'agcn1-wkeng213'
p1653
ssS'3417.eba4.b4ba'
p1654
(dp1655
g3
S'172.17.105.94'
p1656
sg5
S'Vlan215'
p1657
sg15
S'agcn1-wkeng275'
p1658
ssS'b8ca.3ac6.a427'
p1659
(dp1660
g3
S'172.17.104.51'
p1661
sg5
S'Vlan210'
p1662
sg15
S'agcn1-laptop57'
p1663
ssS'b8ac.6f3e.a7d9'
p1664
(dp1665
g3
S'172.17.105.127'
p1666
sg5
S'Vlan215'
p1667
sg15
S'agcn1-wkeng129'
p1668
ssS'3417.ebc2.c3fa'
p1669
(dp1670
g3
S'172.17.110.103'
p1671
sg5
S'Vlan225'
p1672
sg15
S'agcn1-wkeng293'
p1673
ssS'685b.358d.475e'
p1674
(dp1675
g3
S'172.17.101.153'
p1676
sg5
S'Vlan211'
p1677
ssS'b8ac.6f2e.8b61'
p1678
(dp1679
g3
S'172.17.103.207'
p1680
sg5
S'Vlan212'
p1681
sg15
S'AGCN1-WKENG131'
p1682
ssS'3417.ebb1.0875'
p1683
(dp1684
g3
S'172.17.101.86'
p1685
sg5
S'Vlan211'
p1686
ssS'b8ca.3aa9.d3f9'
p1687
(dp1688
g3
S'172.17.101.222'
p1689
sg5
S'Vlan211'
p1690
sg15
S'agcn1-wkeng224'
p1691
ssS'90b1.1c91.4bf5'
p1692
(dp1693
g3
S'172.17.104.72'
p1694
sg5
S'Vlan210'
p1695
sg15
S'agcn1-wkeng162'
p1696
ssS'3417.ebd1.271f'
p1697
(dp1698
g3
S'172.17.110.108'
p1699
sg5
S'Vlan225'
p1700
sg15
S'agcn1-wkeng308'
p1701
ssS'b8ca.3a78.3679'
p1702
(dp1703
g3
S'172.17.104.104'
p1704
sg5
S'Vlan210'
p1705
sg15
S'AGCN1-WKENG179'
p1706
ssS'b8ac.6f2e.8b6b'
p1707
(dp1708
g3
S'172.17.102.66'
p1709
sg5
S'Vlan214'
p1710
sg15
S'agcn1-wkeng110'
p1711
ssS'3417.eba4.b4de'
p1712
(dp1713
g3
S'172.17.103.209'
p1714
sg5
S'Vlan212'
p1715
sg15
S'agcn1-wkeng263'
p1716
ssS'3417.ebc4.e27a'
p1717
(dp1718
g3
S'172.17.105.172'
p1719
sg5
S'Vlan215'
p1720
sg15
S'agcn1-wkeng287'
p1721
ssS'b8ca.3a7f.824b'
p1722
(dp1723
g3
S'172.17.103.194'
p1724
sg5
S'Vlan212'
p1725
sg15
S'agcn1-wkeng186'
p1726
ssS'b8ca.3a84.48fb'
p1727
(dp1728
g3
S'172.17.103.76'
p1729
sg5
S'Vlan212'
p1730
sg15
S'agcn1-wkeng189'
p1731
ssS'b8ca.3a97.6654'
p1732
(dp1733
g3
S'172.17.101.143'
p1734
sg5
S'Vlan211'
p1735
sg15
S'agcn1-wkeng204'
p1736
ssS'b8ac.6f3e.a38b'
p1737
(dp1738
g3
S'172.17.101.126'
p1739
sg5
S'Vlan211'
p1740
sg15
S'agcn1-wkeng120'
p1741
ssS'90b1.1c9d.48aa'
p1742
(dp1743
g3
S'172.17.101.128'
p1744
sg5
S'Vlan211'
p1745
sg15
S'agcn1-wkeng176'
p1746
ssS'60f8.1dd0.f7ee'
p1747
(dp1748
g3
S'172.17.102.63'
p1749
sg5
S'Vlan214'
p1750
ssS'90b1.1c95.3d11'
p1751
(dp1752
g24
S'172.17.111.57'
p1753
sg26
S'Vlan226'
p1754
sg15
S'agcn1-wkeng172'
p1755
ssS'000c.2950.0141'
p1756
(dp1757
g3
S'172.17.100.10'
p1758
sg5
S'Vlan217'
p1759
ssS'b8ee.6504.2ba8'
p1760
(dp1761
g3
S'172.17.10.112'
p1762
sg5
S'Vlan220'
p1763
sg15
S'agcn1-laptop95'
p1764
ssS'b8ac.6f3e.a86b'
p1765
(dp1766
g3
S'172.17.105.209'
p1767
sg5
S'Vlan215'
p1768
sg15
S'agcn1-wkeng127'
p1769
ssS'0026.b9de.c1bf'
p1770
(dp1771
g3
S'172.17.105.138'
p1772
sg5
S'Vlan215'
p1773
sg15
S'agcn1-laptop30'
p1774
ssS'90b1.1c91.5952'
p1775
(dp1776
g3
S'172.17.101.78'
p1777
sg5
S'Vlan211'
p1778
sg15
S'agcn1-wkeng163'
p1779
ssS'000e.c6f5.ee6a'
p1780
(dp1781
g3
S'172.17.103.160'
p1782
sg5
S'Vlan212'
p1783
ssS'7cfa.df93.47b9'
p1784
(dp1785
g3
S'172.17.104.66'
p1786
sg5
S'Vlan210'
p1787
ssS'000c.29b2.e773'
p1788
(dp1789
g41
S'172.17.101.35'
p1790
sg43
S'Vlan211'
p1791
sg45
g46
ssS'b8ca.3a76.f489'
p1792
(dp1793
g24
S'172.17.104.61'
p1794
sg26
S'Vlan210'
p1795
sg15
S'agcn1-wkeng178'
p1796
ssS'f8b1.56d0.233f'
p1797
(dp1798
g3
S'172.17.103.211'
p1799
sg5
S'Vlan212'
p1800
sg15
S'agcn1-wkeng251'
p1801
ssS'0021.cc5e.cc22'
p1802
(dp1803
g3
S'172.17.110.128'
p1804
sg5
S'Vlan225'
p1805
sg15
S'china-alei'
p1806
ssS'1803.7331.0ca9'
p1807
(dp1808
g3
S'172.17.111.10'
p1809
sg5
S'Vlan226'
p1810
ssS'b8ac.6f3e.99a2'
p1811
(dp1812
g3
S'172.17.51.52'
p1813
sg5
S'Vlan206'
p1814
sg15
S'agcn1-wkeng122'
p1815
ssS'f8b1.56d0.1c65'
p1816
(dp1817
g3
S'172.17.7.52'
p1818
sg5
S'Vlan201'
p1819
sg15
S'agcn1-wkeng244'
p1820
ssS'7c1d.d975.4cfc'
p1821
(dp1822
g3
S'172.17.101.157'
p1823
sg5
S'Vlan211'
p1824
ssS'1803.7331.0c7c'
p1825
(dp1826
g3
S'172.17.103.199'
p1827
sg5
S'Vlan212'
p1828
sg15
S'agcn1-wkeng151'
p1829
ssS'000c.29a4.a916'
p1830
(dp1831
g3
S'172.17.101.3'
p1832
sg5
S'Vlan211'
p1833
ssS'28d2.4471.c1ff'
p1834
(dp1835
g3
S'172.17.103.232'
p1836
sg5
S'Vlan212'
p1837
sg15
S'agcn1-laptop91'
p1838
ssS'b8ca.3a88.5cb8'
p1839
(dp1840
g3
S'172.17.110.99'
p1841
sg5
S'Vlan225'
p1842
sg15
S'agcn1-wkeng200'
p1843
ss.